ARM GAS  /tmp/cc32IZtB.s 			page 1


   1              		.cpu cortex-m0
   2              		.eabi_attribute 20, 1
   3              		.eabi_attribute 21, 1
   4              		.eabi_attribute 23, 3
   5              		.eabi_attribute 24, 1
   6              		.eabi_attribute 25, 1
   7              		.eabi_attribute 26, 1
   8              		.eabi_attribute 30, 1
   9              		.eabi_attribute 34, 0
  10              		.eabi_attribute 18, 4
  11              		.file	"usbd_conf.c"
  12              		.text
  13              	.Ltext0:
  14              		.cfi_sections	.debug_frame
  15              		.section	.text.HAL_PCD_MspInit,"ax",%progbits
  16              		.align	1
  17              		.global	HAL_PCD_MspInit
  18              		.arch armv6s-m
  19              		.syntax unified
  20              		.code	16
  21              		.thumb_func
  22              		.fpu softvfp
  24              	HAL_PCD_MspInit:
  25              	.LVL0:
  26              	.LFB43:
  27              		.file 1 "Core/Src/usbd_conf.c"
   1:Core/Src/usbd_conf.c **** /**
   2:Core/Src/usbd_conf.c ****   ******************************************************************************
   3:Core/Src/usbd_conf.c ****   * @file           : usbd_conf.c
   4:Core/Src/usbd_conf.c ****   * @version        : v2.0_Cube
   5:Core/Src/usbd_conf.c ****   * @brief          : This file implements the board support package for the USB device library
   6:Core/Src/usbd_conf.c ****   ******************************************************************************
   7:Core/Src/usbd_conf.c ****   * This notice applies to any and all portions of this file
   8:Core/Src/usbd_conf.c ****   * that are not between comment pairs USER CODE BEGIN and
   9:Core/Src/usbd_conf.c ****   * USER CODE END. Other portions of this file, whether
  10:Core/Src/usbd_conf.c ****   * inserted by the user or by software development tools
  11:Core/Src/usbd_conf.c ****   * are owned by their respective copyright owners.
  12:Core/Src/usbd_conf.c ****   *
  13:Core/Src/usbd_conf.c ****   * Copyright (c) 2018 STMicroelectronics International N.V.
  14:Core/Src/usbd_conf.c ****   * All rights reserved.
  15:Core/Src/usbd_conf.c ****   *
  16:Core/Src/usbd_conf.c ****   * Redistribution and use in source and binary forms, with or without
  17:Core/Src/usbd_conf.c ****   * modification, are permitted, provided that the following conditions are met:
  18:Core/Src/usbd_conf.c ****   *
  19:Core/Src/usbd_conf.c ****   * 1. Redistribution of source code must retain the above copyright notice,
  20:Core/Src/usbd_conf.c ****   *    this list of conditions and the following disclaimer.
  21:Core/Src/usbd_conf.c ****   * 2. Redistributions in binary form must reproduce the above copyright notice,
  22:Core/Src/usbd_conf.c ****   *    this list of conditions and the following disclaimer in the documentation
  23:Core/Src/usbd_conf.c ****   *    and/or other materials provided with the distribution.
  24:Core/Src/usbd_conf.c ****   * 3. Neither the name of STMicroelectronics nor the names of other
  25:Core/Src/usbd_conf.c ****   *    contributors to this software may be used to endorse or promote products
  26:Core/Src/usbd_conf.c ****   *    derived from this software without specific written permission.
  27:Core/Src/usbd_conf.c ****   * 4. This software, including modifications and/or derivative works of this
  28:Core/Src/usbd_conf.c ****   *    software, must execute solely and exclusively on microcontroller or
  29:Core/Src/usbd_conf.c ****   *    microprocessor devices manufactured by or for STMicroelectronics.
  30:Core/Src/usbd_conf.c ****   * 5. Redistribution and use of this software other than as permitted under
  31:Core/Src/usbd_conf.c ****   *    this license is void and will automatically terminate your rights under
ARM GAS  /tmp/cc32IZtB.s 			page 2


  32:Core/Src/usbd_conf.c ****   *    this license.
  33:Core/Src/usbd_conf.c ****   *
  34:Core/Src/usbd_conf.c ****   * THIS SOFTWARE IS PROVIDED BY STMICROELECTRONICS AND CONTRIBUTORS "AS IS"
  35:Core/Src/usbd_conf.c ****   * AND ANY EXPRESS, IMPLIED OR STATUTORY WARRANTIES, INCLUDING, BUT NOT
  36:Core/Src/usbd_conf.c ****   * LIMITED TO, THE IMPLIED WARRANTIES OF MERCHANTABILITY, FITNESS FOR A
  37:Core/Src/usbd_conf.c ****   * PARTICULAR PURPOSE AND NON-INFRINGEMENT OF THIRD PARTY INTELLECTUAL PROPERTY
  38:Core/Src/usbd_conf.c ****   * RIGHTS ARE DISCLAIMED TO THE FULLEST EXTENT PERMITTED BY LAW. IN NO EVENT
  39:Core/Src/usbd_conf.c ****   * SHALL STMICROELECTRONICS OR CONTRIBUTORS BE LIABLE FOR ANY DIRECT, INDIRECT,
  40:Core/Src/usbd_conf.c ****   * INCIDENTAL, SPECIAL, EXEMPLARY, OR CONSEQUENTIAL DAMAGES (INCLUDING, BUT NOT
  41:Core/Src/usbd_conf.c ****   * LIMITED TO, PROCUREMENT OF SUBSTITUTE GOODS OR SERVICES; LOSS OF USE, DATA,
  42:Core/Src/usbd_conf.c ****   * OR PROFITS; OR BUSINESS INTERRUPTION) HOWEVER CAUSED AND ON ANY THEORY OF
  43:Core/Src/usbd_conf.c ****   * LIABILITY, WHETHER IN CONTRACT, STRICT LIABILITY, OR TORT (INCLUDING
  44:Core/Src/usbd_conf.c ****   * NEGLIGENCE OR OTHERWISE) ARISING IN ANY WAY OUT OF THE USE OF THIS SOFTWARE,
  45:Core/Src/usbd_conf.c ****   * EVEN IF ADVISED OF THE POSSIBILITY OF SUCH DAMAGE.
  46:Core/Src/usbd_conf.c ****   *
  47:Core/Src/usbd_conf.c ****   ******************************************************************************
  48:Core/Src/usbd_conf.c ****   */
  49:Core/Src/usbd_conf.c **** 
  50:Core/Src/usbd_conf.c **** /* Includes ------------------------------------------------------------------*/
  51:Core/Src/usbd_conf.c **** #include "stm32f0xx.h"
  52:Core/Src/usbd_conf.c **** #include "stm32f0xx_hal.h"
  53:Core/Src/usbd_conf.c **** #include "usbd_def.h"
  54:Core/Src/usbd_conf.c **** #include "usbd_core.h"
  55:Core/Src/usbd_conf.c **** 
  56:Core/Src/usbd_conf.c **** /* USER CODE BEGIN Includes */
  57:Core/Src/usbd_conf.c **** 
  58:Core/Src/usbd_conf.c **** /* USER CODE END Includes */
  59:Core/Src/usbd_conf.c **** 
  60:Core/Src/usbd_conf.c **** /* Private typedef -----------------------------------------------------------*/
  61:Core/Src/usbd_conf.c **** /* Private define ------------------------------------------------------------*/
  62:Core/Src/usbd_conf.c **** /* Private macro -------------------------------------------------------------*/
  63:Core/Src/usbd_conf.c **** 
  64:Core/Src/usbd_conf.c **** /* USER CODE BEGIN PV */
  65:Core/Src/usbd_conf.c **** /* Private variables ---------------------------------------------------------*/
  66:Core/Src/usbd_conf.c **** 
  67:Core/Src/usbd_conf.c **** /* USER CODE END PV */
  68:Core/Src/usbd_conf.c **** 
  69:Core/Src/usbd_conf.c **** PCD_HandleTypeDef hpcd_USB_FS;
  70:Core/Src/usbd_conf.c **** //void _Error_Handler(char * file, int line);
  71:Core/Src/usbd_conf.c **** 
  72:Core/Src/usbd_conf.c **** /* USER CODE BEGIN 0 */
  73:Core/Src/usbd_conf.c **** 
  74:Core/Src/usbd_conf.c **** /* USER CODE END 0 */
  75:Core/Src/usbd_conf.c **** 
  76:Core/Src/usbd_conf.c **** /* USER CODE BEGIN PFP */
  77:Core/Src/usbd_conf.c **** /* Private function prototypes -----------------------------------------------*/
  78:Core/Src/usbd_conf.c **** 
  79:Core/Src/usbd_conf.c **** /* USER CODE END PFP */
  80:Core/Src/usbd_conf.c **** 
  81:Core/Src/usbd_conf.c **** /* Private functions ---------------------------------------------------------*/
  82:Core/Src/usbd_conf.c **** 
  83:Core/Src/usbd_conf.c **** /* USER CODE BEGIN 1 */
  84:Core/Src/usbd_conf.c **** 
  85:Core/Src/usbd_conf.c **** /* USER CODE END 1 */
  86:Core/Src/usbd_conf.c **** void HAL_PCDEx_SetConnectionState(PCD_HandleTypeDef *hpcd, uint8_t state);
  87:Core/Src/usbd_conf.c **** //extern void SystemClock_Config(void);
  88:Core/Src/usbd_conf.c **** 
ARM GAS  /tmp/cc32IZtB.s 			page 3


  89:Core/Src/usbd_conf.c **** /*******************************************************************************
  90:Core/Src/usbd_conf.c ****                        LL Driver Callbacks (PCD -> USB Device Library)
  91:Core/Src/usbd_conf.c **** *******************************************************************************/
  92:Core/Src/usbd_conf.c **** /* MSP Init */
  93:Core/Src/usbd_conf.c **** 
  94:Core/Src/usbd_conf.c **** void HAL_PCD_MspInit(PCD_HandleTypeDef* pcdHandle)
  95:Core/Src/usbd_conf.c **** {
  28              		.loc 1 95 1 view -0
  29              		.cfi_startproc
  30              		@ args = 0, pretend = 0, frame = 8
  31              		@ frame_needed = 0, uses_anonymous_args = 0
  32              		.loc 1 95 1 is_stmt 0 view .LVU1
  33 0000 00B5     		push	{lr}
  34              	.LCFI0:
  35              		.cfi_def_cfa_offset 4
  36              		.cfi_offset 14, -4
  37 0002 83B0     		sub	sp, sp, #12
  38              	.LCFI1:
  39              		.cfi_def_cfa_offset 16
  96:Core/Src/usbd_conf.c ****   if(pcdHandle->Instance==USB)
  40              		.loc 1 96 3 is_stmt 1 view .LVU2
  41              		.loc 1 96 15 is_stmt 0 view .LVU3
  42 0004 0268     		ldr	r2, [r0]
  43              		.loc 1 96 5 view .LVU4
  44 0006 0C4B     		ldr	r3, .L4
  45 0008 9A42     		cmp	r2, r3
  46 000a 01D0     		beq	.L3
  47              	.LVL1:
  48              	.L1:
  97:Core/Src/usbd_conf.c ****   {
  98:Core/Src/usbd_conf.c ****   /* USER CODE BEGIN USB_MspInit 0 */
  99:Core/Src/usbd_conf.c **** 
 100:Core/Src/usbd_conf.c ****   /* USER CODE END USB_MspInit 0 */
 101:Core/Src/usbd_conf.c ****     /* Peripheral clock enable */
 102:Core/Src/usbd_conf.c ****     __HAL_RCC_USB_CLK_ENABLE();
 103:Core/Src/usbd_conf.c **** 
 104:Core/Src/usbd_conf.c ****     /* Peripheral interrupt init */
 105:Core/Src/usbd_conf.c ****     HAL_NVIC_SetPriority(USB_IRQn, 1, 0);
 106:Core/Src/usbd_conf.c ****     HAL_NVIC_EnableIRQ(USB_IRQn);
 107:Core/Src/usbd_conf.c ****   /* USER CODE BEGIN USB_MspInit 1 */
 108:Core/Src/usbd_conf.c **** 
 109:Core/Src/usbd_conf.c ****   /* USER CODE END USB_MspInit 1 */
 110:Core/Src/usbd_conf.c ****   }
 111:Core/Src/usbd_conf.c **** }
  49              		.loc 1 111 1 view .LVU5
  50 000c 03B0     		add	sp, sp, #12
  51              		@ sp needed
  52 000e 00BD     		pop	{pc}
  53              	.LVL2:
  54              	.L3:
 102:Core/Src/usbd_conf.c **** 
  55              		.loc 1 102 5 is_stmt 1 view .LVU6
  56              	.LBB2:
 102:Core/Src/usbd_conf.c **** 
  57              		.loc 1 102 5 view .LVU7
 102:Core/Src/usbd_conf.c **** 
  58              		.loc 1 102 5 view .LVU8
ARM GAS  /tmp/cc32IZtB.s 			page 4


  59 0010 0A4A     		ldr	r2, .L4+4
  60 0012 D169     		ldr	r1, [r2, #28]
  61 0014 8020     		movs	r0, #128
  62              	.LVL3:
 102:Core/Src/usbd_conf.c **** 
  63              		.loc 1 102 5 is_stmt 0 view .LVU9
  64 0016 0004     		lsls	r0, r0, #16
  65 0018 0143     		orrs	r1, r0
  66 001a D161     		str	r1, [r2, #28]
 102:Core/Src/usbd_conf.c **** 
  67              		.loc 1 102 5 is_stmt 1 view .LVU10
  68 001c D369     		ldr	r3, [r2, #28]
  69 001e 0340     		ands	r3, r0
  70 0020 0193     		str	r3, [sp, #4]
 102:Core/Src/usbd_conf.c **** 
  71              		.loc 1 102 5 view .LVU11
  72 0022 019B     		ldr	r3, [sp, #4]
  73              	.LBE2:
 102:Core/Src/usbd_conf.c **** 
  74              		.loc 1 102 5 view .LVU12
 105:Core/Src/usbd_conf.c ****     HAL_NVIC_EnableIRQ(USB_IRQn);
  75              		.loc 1 105 5 view .LVU13
  76 0024 0022     		movs	r2, #0
  77 0026 0121     		movs	r1, #1
  78 0028 1F20     		movs	r0, #31
  79 002a FFF7FEFF 		bl	HAL_NVIC_SetPriority
  80              	.LVL4:
 106:Core/Src/usbd_conf.c ****   /* USER CODE BEGIN USB_MspInit 1 */
  81              		.loc 1 106 5 view .LVU14
  82 002e 1F20     		movs	r0, #31
  83 0030 FFF7FEFF 		bl	HAL_NVIC_EnableIRQ
  84              	.LVL5:
  85              		.loc 1 111 1 is_stmt 0 view .LVU15
  86 0034 EAE7     		b	.L1
  87              	.L5:
  88 0036 C046     		.align	2
  89              	.L4:
  90 0038 005C0040 		.word	1073765376
  91 003c 00100240 		.word	1073876992
  92              		.cfi_endproc
  93              	.LFE43:
  95              		.section	.text.HAL_PCD_MspDeInit,"ax",%progbits
  96              		.align	1
  97              		.global	HAL_PCD_MspDeInit
  98              		.syntax unified
  99              		.code	16
 100              		.thumb_func
 101              		.fpu softvfp
 103              	HAL_PCD_MspDeInit:
 104              	.LVL6:
 105              	.LFB44:
 112:Core/Src/usbd_conf.c **** 
 113:Core/Src/usbd_conf.c **** void HAL_PCD_MspDeInit(PCD_HandleTypeDef* pcdHandle)
 114:Core/Src/usbd_conf.c **** {
 106              		.loc 1 114 1 is_stmt 1 view -0
 107              		.cfi_startproc
 108              		@ args = 0, pretend = 0, frame = 0
ARM GAS  /tmp/cc32IZtB.s 			page 5


 109              		@ frame_needed = 0, uses_anonymous_args = 0
 110              		.loc 1 114 1 is_stmt 0 view .LVU17
 111 0000 10B5     		push	{r4, lr}
 112              	.LCFI2:
 113              		.cfi_def_cfa_offset 8
 114              		.cfi_offset 4, -8
 115              		.cfi_offset 14, -4
 115:Core/Src/usbd_conf.c ****   if(pcdHandle->Instance==USB)
 116              		.loc 1 115 3 is_stmt 1 view .LVU18
 117              		.loc 1 115 15 is_stmt 0 view .LVU19
 118 0002 0268     		ldr	r2, [r0]
 119              		.loc 1 115 5 view .LVU20
 120 0004 064B     		ldr	r3, .L9
 121 0006 9A42     		cmp	r2, r3
 122 0008 00D0     		beq	.L8
 123              	.LVL7:
 124              	.L6:
 116:Core/Src/usbd_conf.c ****   {
 117:Core/Src/usbd_conf.c ****   /* USER CODE BEGIN USB_MspDeInit 0 */
 118:Core/Src/usbd_conf.c **** 
 119:Core/Src/usbd_conf.c ****   /* USER CODE END USB_MspDeInit 0 */
 120:Core/Src/usbd_conf.c ****     /* Peripheral clock disable */
 121:Core/Src/usbd_conf.c ****     __HAL_RCC_USB_CLK_DISABLE();
 122:Core/Src/usbd_conf.c **** 
 123:Core/Src/usbd_conf.c ****     /* Peripheral interrupt Deinit*/
 124:Core/Src/usbd_conf.c ****     HAL_NVIC_DisableIRQ(USB_IRQn);
 125:Core/Src/usbd_conf.c **** 
 126:Core/Src/usbd_conf.c ****   /* USER CODE BEGIN USB_MspDeInit 1 */
 127:Core/Src/usbd_conf.c **** 
 128:Core/Src/usbd_conf.c ****   /* USER CODE END USB_MspDeInit 1 */
 129:Core/Src/usbd_conf.c ****   }
 130:Core/Src/usbd_conf.c **** }
 125              		.loc 1 130 1 view .LVU21
 126              		@ sp needed
 127 000a 10BD     		pop	{r4, pc}
 128              	.LVL8:
 129              	.L8:
 121:Core/Src/usbd_conf.c **** 
 130              		.loc 1 121 5 is_stmt 1 view .LVU22
 131 000c 054A     		ldr	r2, .L9+4
 132 000e D369     		ldr	r3, [r2, #28]
 133 0010 0549     		ldr	r1, .L9+8
 134 0012 0B40     		ands	r3, r1
 135 0014 D361     		str	r3, [r2, #28]
 124:Core/Src/usbd_conf.c **** 
 136              		.loc 1 124 5 view .LVU23
 137 0016 1F20     		movs	r0, #31
 138              	.LVL9:
 124:Core/Src/usbd_conf.c **** 
 139              		.loc 1 124 5 is_stmt 0 view .LVU24
 140 0018 FFF7FEFF 		bl	HAL_NVIC_DisableIRQ
 141              	.LVL10:
 142              		.loc 1 130 1 view .LVU25
 143 001c F5E7     		b	.L6
 144              	.L10:
 145 001e C046     		.align	2
 146              	.L9:
ARM GAS  /tmp/cc32IZtB.s 			page 6


 147 0020 005C0040 		.word	1073765376
 148 0024 00100240 		.word	1073876992
 149 0028 FFFF7FFF 		.word	-8388609
 150              		.cfi_endproc
 151              	.LFE44:
 153              		.section	.text.HAL_PCD_SetupStageCallback,"ax",%progbits
 154              		.align	1
 155              		.global	HAL_PCD_SetupStageCallback
 156              		.syntax unified
 157              		.code	16
 158              		.thumb_func
 159              		.fpu softvfp
 161              	HAL_PCD_SetupStageCallback:
 162              	.LVL11:
 163              	.LFB45:
 131:Core/Src/usbd_conf.c **** 
 132:Core/Src/usbd_conf.c **** /**
 133:Core/Src/usbd_conf.c ****   * @brief  Setup stage callback
 134:Core/Src/usbd_conf.c ****   * @param  hpcd: PCD handle
 135:Core/Src/usbd_conf.c ****   * @retval None
 136:Core/Src/usbd_conf.c ****   */
 137:Core/Src/usbd_conf.c **** void HAL_PCD_SetupStageCallback(PCD_HandleTypeDef *hpcd)
 138:Core/Src/usbd_conf.c **** {
 164              		.loc 1 138 1 is_stmt 1 view -0
 165              		.cfi_startproc
 166              		@ args = 0, pretend = 0, frame = 0
 167              		@ frame_needed = 0, uses_anonymous_args = 0
 168              		.loc 1 138 1 is_stmt 0 view .LVU27
 169 0000 10B5     		push	{r4, lr}
 170              	.LCFI3:
 171              		.cfi_def_cfa_offset 8
 172              		.cfi_offset 4, -8
 173              		.cfi_offset 14, -4
 174 0002 0100     		movs	r1, r0
 139:Core/Src/usbd_conf.c ****   USBD_LL_SetupStage((USBD_HandleTypeDef*)hpcd->pData, (uint8_t *)hpcd->Setup);
 175              		.loc 1 139 3 is_stmt 1 view .LVU28
 176              		.loc 1 139 47 is_stmt 0 view .LVU29
 177 0004 BC23     		movs	r3, #188
 178 0006 9B00     		lsls	r3, r3, #2
 179 0008 C058     		ldr	r0, [r0, r3]
 180              	.LVL12:
 181              		.loc 1 139 67 view .LVU30
 182 000a 403B     		subs	r3, r3, #64
 183 000c 9C46     		mov	ip, r3
 184 000e 6144     		add	r1, r1, ip
 185              	.LVL13:
 186              		.loc 1 139 3 view .LVU31
 187 0010 FFF7FEFF 		bl	USBD_LL_SetupStage
 188              	.LVL14:
 140:Core/Src/usbd_conf.c **** }
 189              		.loc 1 140 1 view .LVU32
 190              		@ sp needed
 191 0014 10BD     		pop	{r4, pc}
 192              		.cfi_endproc
 193              	.LFE45:
 195              		.section	.text.HAL_PCD_DataOutStageCallback,"ax",%progbits
 196              		.align	1
ARM GAS  /tmp/cc32IZtB.s 			page 7


 197              		.global	HAL_PCD_DataOutStageCallback
 198              		.syntax unified
 199              		.code	16
 200              		.thumb_func
 201              		.fpu softvfp
 203              	HAL_PCD_DataOutStageCallback:
 204              	.LVL15:
 205              	.LFB46:
 141:Core/Src/usbd_conf.c **** 
 142:Core/Src/usbd_conf.c **** /**
 143:Core/Src/usbd_conf.c ****   * @brief  Data Out stage callback.
 144:Core/Src/usbd_conf.c ****   * @param  hpcd: PCD handle
 145:Core/Src/usbd_conf.c ****   * @param  epnum: Endpoint number
 146:Core/Src/usbd_conf.c ****   * @retval None
 147:Core/Src/usbd_conf.c ****   */
 148:Core/Src/usbd_conf.c **** void HAL_PCD_DataOutStageCallback(PCD_HandleTypeDef *hpcd, uint8_t epnum)
 149:Core/Src/usbd_conf.c **** {
 206              		.loc 1 149 1 is_stmt 1 view -0
 207              		.cfi_startproc
 208              		@ args = 0, pretend = 0, frame = 0
 209              		@ frame_needed = 0, uses_anonymous_args = 0
 210              		.loc 1 149 1 is_stmt 0 view .LVU34
 211 0000 10B5     		push	{r4, lr}
 212              	.LCFI4:
 213              		.cfi_def_cfa_offset 8
 214              		.cfi_offset 4, -8
 215              		.cfi_offset 14, -4
 216 0002 0300     		movs	r3, r0
 150:Core/Src/usbd_conf.c ****   USBD_LL_DataOutStage((USBD_HandleTypeDef*)hpcd->pData, epnum, hpcd->OUT_ep[epnum].xfer_buff);
 217              		.loc 1 150 3 is_stmt 1 view .LVU35
 218              		.loc 1 150 49 is_stmt 0 view .LVU36
 219 0004 BC22     		movs	r2, #188
 220 0006 9200     		lsls	r2, r2, #2
 221 0008 8058     		ldr	r0, [r0, r2]
 222              	.LVL16:
 223              		.loc 1 150 3 view .LVU37
 224 000a 8A00     		lsls	r2, r1, #2
 225 000c 5218     		adds	r2, r2, r1
 226 000e D200     		lsls	r2, r2, #3
 227 0010 9B18     		adds	r3, r3, r2
 228              	.LVL17:
 229              		.loc 1 150 3 view .LVU38
 230 0012 7D33     		adds	r3, r3, #125
 231 0014 FF33     		adds	r3, r3, #255
 232 0016 1A68     		ldr	r2, [r3]
 233 0018 FFF7FEFF 		bl	USBD_LL_DataOutStage
 234              	.LVL18:
 151:Core/Src/usbd_conf.c **** }
 235              		.loc 1 151 1 view .LVU39
 236              		@ sp needed
 237 001c 10BD     		pop	{r4, pc}
 238              		.cfi_endproc
 239              	.LFE46:
 241              		.section	.text.HAL_PCD_DataInStageCallback,"ax",%progbits
 242              		.align	1
 243              		.global	HAL_PCD_DataInStageCallback
 244              		.syntax unified
ARM GAS  /tmp/cc32IZtB.s 			page 8


 245              		.code	16
 246              		.thumb_func
 247              		.fpu softvfp
 249              	HAL_PCD_DataInStageCallback:
 250              	.LVL19:
 251              	.LFB47:
 152:Core/Src/usbd_conf.c **** 
 153:Core/Src/usbd_conf.c **** /**
 154:Core/Src/usbd_conf.c ****   * @brief  Data In stage callback.
 155:Core/Src/usbd_conf.c ****   * @param  hpcd: PCD handle
 156:Core/Src/usbd_conf.c ****   * @param  epnum: Endpoint number
 157:Core/Src/usbd_conf.c ****   * @retval None
 158:Core/Src/usbd_conf.c ****   */
 159:Core/Src/usbd_conf.c **** void HAL_PCD_DataInStageCallback(PCD_HandleTypeDef *hpcd, uint8_t epnum)
 160:Core/Src/usbd_conf.c **** {
 252              		.loc 1 160 1 is_stmt 1 view -0
 253              		.cfi_startproc
 254              		@ args = 0, pretend = 0, frame = 0
 255              		@ frame_needed = 0, uses_anonymous_args = 0
 256              		.loc 1 160 1 is_stmt 0 view .LVU41
 257 0000 10B5     		push	{r4, lr}
 258              	.LCFI5:
 259              		.cfi_def_cfa_offset 8
 260              		.cfi_offset 4, -8
 261              		.cfi_offset 14, -4
 262 0002 0300     		movs	r3, r0
 161:Core/Src/usbd_conf.c ****   USBD_LL_DataInStage((USBD_HandleTypeDef*)hpcd->pData, epnum, hpcd->IN_ep[epnum].xfer_buff);
 263              		.loc 1 161 3 is_stmt 1 view .LVU42
 264              		.loc 1 161 48 is_stmt 0 view .LVU43
 265 0004 BC22     		movs	r2, #188
 266 0006 9200     		lsls	r2, r2, #2
 267 0008 8058     		ldr	r0, [r0, r2]
 268              	.LVL20:
 269              		.loc 1 161 3 view .LVU44
 270 000a 8A00     		lsls	r2, r1, #2
 271 000c 5218     		adds	r2, r2, r1
 272 000e D200     		lsls	r2, r2, #3
 273 0010 9B18     		adds	r3, r3, r2
 274              	.LVL21:
 275              		.loc 1 161 3 view .LVU45
 276 0012 DA6B     		ldr	r2, [r3, #60]
 277 0014 FFF7FEFF 		bl	USBD_LL_DataInStage
 278              	.LVL22:
 162:Core/Src/usbd_conf.c **** }
 279              		.loc 1 162 1 view .LVU46
 280              		@ sp needed
 281 0018 10BD     		pop	{r4, pc}
 282              		.cfi_endproc
 283              	.LFE47:
 285              		.section	.text.HAL_PCD_SOFCallback,"ax",%progbits
 286              		.align	1
 287              		.global	HAL_PCD_SOFCallback
 288              		.syntax unified
 289              		.code	16
 290              		.thumb_func
 291              		.fpu softvfp
 293              	HAL_PCD_SOFCallback:
ARM GAS  /tmp/cc32IZtB.s 			page 9


 294              	.LVL23:
 295              	.LFB48:
 163:Core/Src/usbd_conf.c **** 
 164:Core/Src/usbd_conf.c **** /**
 165:Core/Src/usbd_conf.c ****   * @brief  SOF callback.
 166:Core/Src/usbd_conf.c ****   * @param  hpcd: PCD handle
 167:Core/Src/usbd_conf.c ****   * @retval None
 168:Core/Src/usbd_conf.c ****   */
 169:Core/Src/usbd_conf.c **** void HAL_PCD_SOFCallback(PCD_HandleTypeDef *hpcd)
 170:Core/Src/usbd_conf.c **** {
 296              		.loc 1 170 1 is_stmt 1 view -0
 297              		.cfi_startproc
 298              		@ args = 0, pretend = 0, frame = 0
 299              		@ frame_needed = 0, uses_anonymous_args = 0
 300              		.loc 1 170 1 is_stmt 0 view .LVU48
 301 0000 10B5     		push	{r4, lr}
 302              	.LCFI6:
 303              		.cfi_def_cfa_offset 8
 304              		.cfi_offset 4, -8
 305              		.cfi_offset 14, -4
 171:Core/Src/usbd_conf.c ****   USBD_LL_SOF((USBD_HandleTypeDef*)hpcd->pData);
 306              		.loc 1 171 3 is_stmt 1 view .LVU49
 307              		.loc 1 171 40 is_stmt 0 view .LVU50
 308 0002 BC23     		movs	r3, #188
 309 0004 9B00     		lsls	r3, r3, #2
 310 0006 C058     		ldr	r0, [r0, r3]
 311              	.LVL24:
 312              		.loc 1 171 3 view .LVU51
 313 0008 FFF7FEFF 		bl	USBD_LL_SOF
 314              	.LVL25:
 172:Core/Src/usbd_conf.c **** }
 315              		.loc 1 172 1 view .LVU52
 316              		@ sp needed
 317 000c 10BD     		pop	{r4, pc}
 318              		.cfi_endproc
 319              	.LFE48:
 321              		.section	.text.HAL_PCD_ResetCallback,"ax",%progbits
 322              		.align	1
 323              		.global	HAL_PCD_ResetCallback
 324              		.syntax unified
 325              		.code	16
 326              		.thumb_func
 327              		.fpu softvfp
 329              	HAL_PCD_ResetCallback:
 330              	.LVL26:
 331              	.LFB49:
 173:Core/Src/usbd_conf.c **** 
 174:Core/Src/usbd_conf.c **** /**
 175:Core/Src/usbd_conf.c ****   * @brief  Reset callback.
 176:Core/Src/usbd_conf.c ****   * @param  hpcd: PCD handle
 177:Core/Src/usbd_conf.c ****   * @retval None
 178:Core/Src/usbd_conf.c ****   */
 179:Core/Src/usbd_conf.c **** void HAL_PCD_ResetCallback(PCD_HandleTypeDef *hpcd)
 180:Core/Src/usbd_conf.c **** {
 332              		.loc 1 180 1 is_stmt 1 view -0
 333              		.cfi_startproc
 334              		@ args = 0, pretend = 0, frame = 0
ARM GAS  /tmp/cc32IZtB.s 			page 10


 335              		@ frame_needed = 0, uses_anonymous_args = 0
 336              		.loc 1 180 1 is_stmt 0 view .LVU54
 337 0000 70B5     		push	{r4, r5, r6, lr}
 338              	.LCFI7:
 339              		.cfi_def_cfa_offset 16
 340              		.cfi_offset 4, -16
 341              		.cfi_offset 5, -12
 342              		.cfi_offset 6, -8
 343              		.cfi_offset 14, -4
 344 0002 0400     		movs	r4, r0
 181:Core/Src/usbd_conf.c ****   USBD_SpeedTypeDef speed = USBD_SPEED_FULL;
 345              		.loc 1 181 3 is_stmt 1 view .LVU55
 346              	.LVL27:
 182:Core/Src/usbd_conf.c **** 
 183:Core/Src/usbd_conf.c ****   /* Set USB current speed. */
 184:Core/Src/usbd_conf.c ****   switch (hpcd->Init.speed)
 347              		.loc 1 184 3 view .LVU56
 185:Core/Src/usbd_conf.c ****   {
 186:Core/Src/usbd_conf.c ****   case PCD_SPEED_FULL:
 187:Core/Src/usbd_conf.c ****     speed = USBD_SPEED_FULL;
 188:Core/Src/usbd_conf.c ****     break;
 189:Core/Src/usbd_conf.c **** 
 190:Core/Src/usbd_conf.c ****   default:
 191:Core/Src/usbd_conf.c ****     speed = USBD_SPEED_FULL;
 192:Core/Src/usbd_conf.c ****     break;
 193:Core/Src/usbd_conf.c ****   }
 194:Core/Src/usbd_conf.c ****   USBD_LL_SetSpeed((USBD_HandleTypeDef*)hpcd->pData, speed);
 348              		.loc 1 194 3 view .LVU57
 349              		.loc 1 194 45 is_stmt 0 view .LVU58
 350 0004 BC25     		movs	r5, #188
 351 0006 AD00     		lsls	r5, r5, #2
 352              		.loc 1 194 3 view .LVU59
 353 0008 0121     		movs	r1, #1
 354 000a 4059     		ldr	r0, [r0, r5]
 355              	.LVL28:
 356              		.loc 1 194 3 view .LVU60
 357 000c FFF7FEFF 		bl	USBD_LL_SetSpeed
 358              	.LVL29:
 195:Core/Src/usbd_conf.c **** 
 196:Core/Src/usbd_conf.c ****   /* Reset Device. */
 197:Core/Src/usbd_conf.c ****   USBD_LL_Reset((USBD_HandleTypeDef*)hpcd->pData);
 359              		.loc 1 197 3 is_stmt 1 view .LVU61
 360              		.loc 1 197 42 is_stmt 0 view .LVU62
 361 0010 6059     		ldr	r0, [r4, r5]
 362              		.loc 1 197 3 view .LVU63
 363 0012 FFF7FEFF 		bl	USBD_LL_Reset
 364              	.LVL30:
 198:Core/Src/usbd_conf.c **** }
 365              		.loc 1 198 1 view .LVU64
 366              		@ sp needed
 367              	.LVL31:
 368              		.loc 1 198 1 view .LVU65
 369 0016 70BD     		pop	{r4, r5, r6, pc}
 370              		.cfi_endproc
 371              	.LFE49:
 373              		.section	.text.HAL_PCD_SuspendCallback,"ax",%progbits
 374              		.align	1
ARM GAS  /tmp/cc32IZtB.s 			page 11


 375              		.global	HAL_PCD_SuspendCallback
 376              		.syntax unified
 377              		.code	16
 378              		.thumb_func
 379              		.fpu softvfp
 381              	HAL_PCD_SuspendCallback:
 382              	.LVL32:
 383              	.LFB50:
 199:Core/Src/usbd_conf.c **** 
 200:Core/Src/usbd_conf.c **** /**
 201:Core/Src/usbd_conf.c ****   * @brief  Suspend callback.
 202:Core/Src/usbd_conf.c ****   * When Low power mode is enabled the debug cannot be used (IAR, Keil doesn't support it)
 203:Core/Src/usbd_conf.c ****   * @param  hpcd: PCD handle
 204:Core/Src/usbd_conf.c ****   * @retval None
 205:Core/Src/usbd_conf.c ****   */
 206:Core/Src/usbd_conf.c **** void HAL_PCD_SuspendCallback(PCD_HandleTypeDef *hpcd)
 207:Core/Src/usbd_conf.c **** {
 384              		.loc 1 207 1 is_stmt 1 view -0
 385              		.cfi_startproc
 386              		@ args = 0, pretend = 0, frame = 0
 387              		@ frame_needed = 0, uses_anonymous_args = 0
 388              		.loc 1 207 1 is_stmt 0 view .LVU67
 389 0000 10B5     		push	{r4, lr}
 390              	.LCFI8:
 391              		.cfi_def_cfa_offset 8
 392              		.cfi_offset 4, -8
 393              		.cfi_offset 14, -4
 394 0002 0400     		movs	r4, r0
 208:Core/Src/usbd_conf.c ****   /* Inform USB library that core enters in suspend Mode. */
 209:Core/Src/usbd_conf.c ****   USBD_LL_Suspend((USBD_HandleTypeDef*)hpcd->pData);
 395              		.loc 1 209 3 is_stmt 1 view .LVU68
 396              		.loc 1 209 44 is_stmt 0 view .LVU69
 397 0004 BC23     		movs	r3, #188
 398 0006 9B00     		lsls	r3, r3, #2
 399 0008 C058     		ldr	r0, [r0, r3]
 400              	.LVL33:
 401              		.loc 1 209 3 view .LVU70
 402 000a FFF7FEFF 		bl	USBD_LL_Suspend
 403              	.LVL34:
 210:Core/Src/usbd_conf.c ****   /* Enter in STOP mode. */
 211:Core/Src/usbd_conf.c ****   /* USER CODE BEGIN 2 */
 212:Core/Src/usbd_conf.c ****   if (hpcd->Init.low_power_enable)
 404              		.loc 1 212 3 is_stmt 1 view .LVU71
 405              		.loc 1 212 17 is_stmt 0 view .LVU72
 406 000e A369     		ldr	r3, [r4, #24]
 407              		.loc 1 212 6 view .LVU73
 408 0010 002B     		cmp	r3, #0
 409 0012 04D0     		beq	.L16
 213:Core/Src/usbd_conf.c ****   {
 214:Core/Src/usbd_conf.c ****     /* Set SLEEPDEEP bit and SleepOnExit of Cortex System Control Register. */
 215:Core/Src/usbd_conf.c ****     SCB->SCR |= (uint32_t)((uint32_t)(SCB_SCR_SLEEPDEEP_Msk | SCB_SCR_SLEEPONEXIT_Msk));
 410              		.loc 1 215 5 is_stmt 1 view .LVU74
 411              		.loc 1 215 14 is_stmt 0 view .LVU75
 412 0014 024A     		ldr	r2, .L18
 413 0016 1369     		ldr	r3, [r2, #16]
 414 0018 0621     		movs	r1, #6
 415 001a 0B43     		orrs	r3, r1
ARM GAS  /tmp/cc32IZtB.s 			page 12


 416 001c 1361     		str	r3, [r2, #16]
 417              	.L16:
 216:Core/Src/usbd_conf.c ****   }
 217:Core/Src/usbd_conf.c ****   /* USER CODE END 2 */
 218:Core/Src/usbd_conf.c **** }
 418              		.loc 1 218 1 view .LVU76
 419              		@ sp needed
 420              	.LVL35:
 421              		.loc 1 218 1 view .LVU77
 422 001e 10BD     		pop	{r4, pc}
 423              	.L19:
 424              		.align	2
 425              	.L18:
 426 0020 00ED00E0 		.word	-536810240
 427              		.cfi_endproc
 428              	.LFE50:
 430              		.section	.text.HAL_PCD_ResumeCallback,"ax",%progbits
 431              		.align	1
 432              		.global	HAL_PCD_ResumeCallback
 433              		.syntax unified
 434              		.code	16
 435              		.thumb_func
 436              		.fpu softvfp
 438              	HAL_PCD_ResumeCallback:
 439              	.LVL36:
 440              	.LFB51:
 219:Core/Src/usbd_conf.c **** 
 220:Core/Src/usbd_conf.c **** /**
 221:Core/Src/usbd_conf.c ****   * @brief  Resume callback.
 222:Core/Src/usbd_conf.c ****   * When Low power mode is enabled the debug cannot be used (IAR, Keil doesn't support it)
 223:Core/Src/usbd_conf.c ****   * @param  hpcd: PCD handle
 224:Core/Src/usbd_conf.c ****   * @retval None
 225:Core/Src/usbd_conf.c ****   */
 226:Core/Src/usbd_conf.c **** void HAL_PCD_ResumeCallback(PCD_HandleTypeDef *hpcd)
 227:Core/Src/usbd_conf.c **** {
 441              		.loc 1 227 1 is_stmt 1 view -0
 442              		.cfi_startproc
 443              		@ args = 0, pretend = 0, frame = 0
 444              		@ frame_needed = 0, uses_anonymous_args = 0
 445              		.loc 1 227 1 is_stmt 0 view .LVU79
 446 0000 10B5     		push	{r4, lr}
 447              	.LCFI9:
 448              		.cfi_def_cfa_offset 8
 449              		.cfi_offset 4, -8
 450              		.cfi_offset 14, -4
 228:Core/Src/usbd_conf.c ****   /* USER CODE BEGIN 3 */
 229:Core/Src/usbd_conf.c **** 
 230:Core/Src/usbd_conf.c ****   /* USER CODE END 3 */
 231:Core/Src/usbd_conf.c ****   USBD_LL_Resume((USBD_HandleTypeDef*)hpcd->pData);
 451              		.loc 1 231 3 is_stmt 1 view .LVU80
 452              		.loc 1 231 43 is_stmt 0 view .LVU81
 453 0002 BC23     		movs	r3, #188
 454 0004 9B00     		lsls	r3, r3, #2
 455 0006 C058     		ldr	r0, [r0, r3]
 456              	.LVL37:
 457              		.loc 1 231 3 view .LVU82
 458 0008 FFF7FEFF 		bl	USBD_LL_Resume
ARM GAS  /tmp/cc32IZtB.s 			page 13


 459              	.LVL38:
 232:Core/Src/usbd_conf.c **** }
 460              		.loc 1 232 1 view .LVU83
 461              		@ sp needed
 462 000c 10BD     		pop	{r4, pc}
 463              		.cfi_endproc
 464              	.LFE51:
 466              		.section	.text.HAL_PCD_ISOOUTIncompleteCallback,"ax",%progbits
 467              		.align	1
 468              		.global	HAL_PCD_ISOOUTIncompleteCallback
 469              		.syntax unified
 470              		.code	16
 471              		.thumb_func
 472              		.fpu softvfp
 474              	HAL_PCD_ISOOUTIncompleteCallback:
 475              	.LVL39:
 476              	.LFB52:
 233:Core/Src/usbd_conf.c **** 
 234:Core/Src/usbd_conf.c **** /**
 235:Core/Src/usbd_conf.c ****   * @brief  ISOOUTIncomplete callback.
 236:Core/Src/usbd_conf.c ****   * @param  hpcd: PCD handle
 237:Core/Src/usbd_conf.c ****   * @param  epnum: Endpoint number
 238:Core/Src/usbd_conf.c ****   * @retval None
 239:Core/Src/usbd_conf.c ****   */
 240:Core/Src/usbd_conf.c **** void HAL_PCD_ISOOUTIncompleteCallback(PCD_HandleTypeDef *hpcd, uint8_t epnum)
 241:Core/Src/usbd_conf.c **** {
 477              		.loc 1 241 1 is_stmt 1 view -0
 478              		.cfi_startproc
 479              		@ args = 0, pretend = 0, frame = 0
 480              		@ frame_needed = 0, uses_anonymous_args = 0
 481              		.loc 1 241 1 is_stmt 0 view .LVU85
 482 0000 10B5     		push	{r4, lr}
 483              	.LCFI10:
 484              		.cfi_def_cfa_offset 8
 485              		.cfi_offset 4, -8
 486              		.cfi_offset 14, -4
 242:Core/Src/usbd_conf.c ****   USBD_LL_IsoOUTIncomplete((USBD_HandleTypeDef*)hpcd->pData, epnum);
 487              		.loc 1 242 3 is_stmt 1 view .LVU86
 488              		.loc 1 242 53 is_stmt 0 view .LVU87
 489 0002 BC23     		movs	r3, #188
 490 0004 9B00     		lsls	r3, r3, #2
 491 0006 C058     		ldr	r0, [r0, r3]
 492              	.LVL40:
 493              		.loc 1 242 3 view .LVU88
 494 0008 FFF7FEFF 		bl	USBD_LL_IsoOUTIncomplete
 495              	.LVL41:
 243:Core/Src/usbd_conf.c **** }
 496              		.loc 1 243 1 view .LVU89
 497              		@ sp needed
 498 000c 10BD     		pop	{r4, pc}
 499              		.cfi_endproc
 500              	.LFE52:
 502              		.section	.text.HAL_PCD_ISOINIncompleteCallback,"ax",%progbits
 503              		.align	1
 504              		.global	HAL_PCD_ISOINIncompleteCallback
 505              		.syntax unified
 506              		.code	16
ARM GAS  /tmp/cc32IZtB.s 			page 14


 507              		.thumb_func
 508              		.fpu softvfp
 510              	HAL_PCD_ISOINIncompleteCallback:
 511              	.LVL42:
 512              	.LFB53:
 244:Core/Src/usbd_conf.c **** 
 245:Core/Src/usbd_conf.c **** /**
 246:Core/Src/usbd_conf.c ****   * @brief  ISOINIncomplete callback.
 247:Core/Src/usbd_conf.c ****   * @param  hpcd: PCD handle
 248:Core/Src/usbd_conf.c ****   * @param  epnum: Endpoint number
 249:Core/Src/usbd_conf.c ****   * @retval None
 250:Core/Src/usbd_conf.c ****   */
 251:Core/Src/usbd_conf.c **** void HAL_PCD_ISOINIncompleteCallback(PCD_HandleTypeDef *hpcd, uint8_t epnum)
 252:Core/Src/usbd_conf.c **** {
 513              		.loc 1 252 1 is_stmt 1 view -0
 514              		.cfi_startproc
 515              		@ args = 0, pretend = 0, frame = 0
 516              		@ frame_needed = 0, uses_anonymous_args = 0
 517              		.loc 1 252 1 is_stmt 0 view .LVU91
 518 0000 10B5     		push	{r4, lr}
 519              	.LCFI11:
 520              		.cfi_def_cfa_offset 8
 521              		.cfi_offset 4, -8
 522              		.cfi_offset 14, -4
 253:Core/Src/usbd_conf.c ****   USBD_LL_IsoINIncomplete((USBD_HandleTypeDef*)hpcd->pData, epnum);
 523              		.loc 1 253 3 is_stmt 1 view .LVU92
 524              		.loc 1 253 52 is_stmt 0 view .LVU93
 525 0002 BC23     		movs	r3, #188
 526 0004 9B00     		lsls	r3, r3, #2
 527 0006 C058     		ldr	r0, [r0, r3]
 528              	.LVL43:
 529              		.loc 1 253 3 view .LVU94
 530 0008 FFF7FEFF 		bl	USBD_LL_IsoINIncomplete
 531              	.LVL44:
 254:Core/Src/usbd_conf.c **** }
 532              		.loc 1 254 1 view .LVU95
 533              		@ sp needed
 534 000c 10BD     		pop	{r4, pc}
 535              		.cfi_endproc
 536              	.LFE53:
 538              		.section	.text.HAL_PCD_ConnectCallback,"ax",%progbits
 539              		.align	1
 540              		.global	HAL_PCD_ConnectCallback
 541              		.syntax unified
 542              		.code	16
 543              		.thumb_func
 544              		.fpu softvfp
 546              	HAL_PCD_ConnectCallback:
 547              	.LVL45:
 548              	.LFB54:
 255:Core/Src/usbd_conf.c **** 
 256:Core/Src/usbd_conf.c **** /**
 257:Core/Src/usbd_conf.c ****   * @brief  Connect callback.
 258:Core/Src/usbd_conf.c ****   * @param  hpcd: PCD handle
 259:Core/Src/usbd_conf.c ****   * @retval None
 260:Core/Src/usbd_conf.c ****   */
 261:Core/Src/usbd_conf.c **** void HAL_PCD_ConnectCallback(PCD_HandleTypeDef *hpcd)
ARM GAS  /tmp/cc32IZtB.s 			page 15


 262:Core/Src/usbd_conf.c **** {
 549              		.loc 1 262 1 is_stmt 1 view -0
 550              		.cfi_startproc
 551              		@ args = 0, pretend = 0, frame = 0
 552              		@ frame_needed = 0, uses_anonymous_args = 0
 553              		.loc 1 262 1 is_stmt 0 view .LVU97
 554 0000 10B5     		push	{r4, lr}
 555              	.LCFI12:
 556              		.cfi_def_cfa_offset 8
 557              		.cfi_offset 4, -8
 558              		.cfi_offset 14, -4
 263:Core/Src/usbd_conf.c ****   USBD_LL_DevConnected((USBD_HandleTypeDef*)hpcd->pData);
 559              		.loc 1 263 3 is_stmt 1 view .LVU98
 560              		.loc 1 263 49 is_stmt 0 view .LVU99
 561 0002 BC23     		movs	r3, #188
 562 0004 9B00     		lsls	r3, r3, #2
 563 0006 C058     		ldr	r0, [r0, r3]
 564              	.LVL46:
 565              		.loc 1 263 3 view .LVU100
 566 0008 FFF7FEFF 		bl	USBD_LL_DevConnected
 567              	.LVL47:
 264:Core/Src/usbd_conf.c **** }
 568              		.loc 1 264 1 view .LVU101
 569              		@ sp needed
 570 000c 10BD     		pop	{r4, pc}
 571              		.cfi_endproc
 572              	.LFE54:
 574              		.section	.text.HAL_PCD_DisconnectCallback,"ax",%progbits
 575              		.align	1
 576              		.global	HAL_PCD_DisconnectCallback
 577              		.syntax unified
 578              		.code	16
 579              		.thumb_func
 580              		.fpu softvfp
 582              	HAL_PCD_DisconnectCallback:
 583              	.LVL48:
 584              	.LFB55:
 265:Core/Src/usbd_conf.c **** 
 266:Core/Src/usbd_conf.c **** /**
 267:Core/Src/usbd_conf.c ****   * @brief  Disconnect callback.
 268:Core/Src/usbd_conf.c ****   * @param  hpcd: PCD handle
 269:Core/Src/usbd_conf.c ****   * @retval None
 270:Core/Src/usbd_conf.c ****   */
 271:Core/Src/usbd_conf.c **** void HAL_PCD_DisconnectCallback(PCD_HandleTypeDef *hpcd)
 272:Core/Src/usbd_conf.c **** {
 585              		.loc 1 272 1 is_stmt 1 view -0
 586              		.cfi_startproc
 587              		@ args = 0, pretend = 0, frame = 0
 588              		@ frame_needed = 0, uses_anonymous_args = 0
 589              		.loc 1 272 1 is_stmt 0 view .LVU103
 590 0000 10B5     		push	{r4, lr}
 591              	.LCFI13:
 592              		.cfi_def_cfa_offset 8
 593              		.cfi_offset 4, -8
 594              		.cfi_offset 14, -4
 273:Core/Src/usbd_conf.c ****   USBD_LL_DevDisconnected((USBD_HandleTypeDef*)hpcd->pData);
 595              		.loc 1 273 3 is_stmt 1 view .LVU104
ARM GAS  /tmp/cc32IZtB.s 			page 16


 596              		.loc 1 273 52 is_stmt 0 view .LVU105
 597 0002 BC23     		movs	r3, #188
 598 0004 9B00     		lsls	r3, r3, #2
 599 0006 C058     		ldr	r0, [r0, r3]
 600              	.LVL49:
 601              		.loc 1 273 3 view .LVU106
 602 0008 FFF7FEFF 		bl	USBD_LL_DevDisconnected
 603              	.LVL50:
 274:Core/Src/usbd_conf.c **** }
 604              		.loc 1 274 1 view .LVU107
 605              		@ sp needed
 606 000c 10BD     		pop	{r4, pc}
 607              		.cfi_endproc
 608              	.LFE55:
 610              		.section	.text.USBD_LL_Init,"ax",%progbits
 611              		.align	1
 612              		.global	USBD_LL_Init
 613              		.syntax unified
 614              		.code	16
 615              		.thumb_func
 616              		.fpu softvfp
 618              	USBD_LL_Init:
 619              	.LVL51:
 620              	.LFB56:
 275:Core/Src/usbd_conf.c **** 
 276:Core/Src/usbd_conf.c **** /*******************************************************************************
 277:Core/Src/usbd_conf.c ****                        LL Driver Interface (USB Device Library --> PCD)
 278:Core/Src/usbd_conf.c **** *******************************************************************************/
 279:Core/Src/usbd_conf.c **** 
 280:Core/Src/usbd_conf.c **** /**
 281:Core/Src/usbd_conf.c ****   * @brief  Initializes the low level portion of the device driver.
 282:Core/Src/usbd_conf.c ****   * @param  pdev: Device handle
 283:Core/Src/usbd_conf.c ****   * @retval USBD status
 284:Core/Src/usbd_conf.c ****   */
 285:Core/Src/usbd_conf.c **** USBD_StatusTypeDef USBD_LL_Init(USBD_HandleTypeDef *pdev)
 286:Core/Src/usbd_conf.c **** {
 621              		.loc 1 286 1 is_stmt 1 view -0
 622              		.cfi_startproc
 623              		@ args = 0, pretend = 0, frame = 0
 624              		@ frame_needed = 0, uses_anonymous_args = 0
 625              		.loc 1 286 1 is_stmt 0 view .LVU109
 626 0000 70B5     		push	{r4, r5, r6, lr}
 627              	.LCFI14:
 628              		.cfi_def_cfa_offset 16
 629              		.cfi_offset 4, -16
 630              		.cfi_offset 5, -12
 631              		.cfi_offset 6, -8
 632              		.cfi_offset 14, -4
 633 0002 0400     		movs	r4, r0
 287:Core/Src/usbd_conf.c ****   /* Init USB Ip. */
 288:Core/Src/usbd_conf.c ****   /* Link the driver to the stack. */
 289:Core/Src/usbd_conf.c ****   hpcd_USB_FS.pData = pdev;
 634              		.loc 1 289 3 is_stmt 1 view .LVU110
 635              		.loc 1 289 21 is_stmt 0 view .LVU111
 636 0004 1B48     		ldr	r0, .L26
 637              	.LVL52:
 638              		.loc 1 289 21 view .LVU112
ARM GAS  /tmp/cc32IZtB.s 			page 17


 639 0006 BC23     		movs	r3, #188
 640 0008 9B00     		lsls	r3, r3, #2
 641 000a C450     		str	r4, [r0, r3]
 290:Core/Src/usbd_conf.c ****   pdev->pData = &hpcd_USB_FS;
 642              		.loc 1 290 3 is_stmt 1 view .LVU113
 643              		.loc 1 290 15 is_stmt 0 view .LVU114
 644 000c 8825     		movs	r5, #136
 645 000e AD00     		lsls	r5, r5, #2
 646 0010 6051     		str	r0, [r4, r5]
 291:Core/Src/usbd_conf.c **** 
 292:Core/Src/usbd_conf.c ****   hpcd_USB_FS.Instance = USB;
 647              		.loc 1 292 3 is_stmt 1 view .LVU115
 648              		.loc 1 292 24 is_stmt 0 view .LVU116
 649 0012 194B     		ldr	r3, .L26+4
 650 0014 0360     		str	r3, [r0]
 293:Core/Src/usbd_conf.c ****   hpcd_USB_FS.Init.dev_endpoints = 8;
 651              		.loc 1 293 3 is_stmt 1 view .LVU117
 652              		.loc 1 293 34 is_stmt 0 view .LVU118
 653 0016 0823     		movs	r3, #8
 654 0018 4360     		str	r3, [r0, #4]
 294:Core/Src/usbd_conf.c ****   hpcd_USB_FS.Init.speed = PCD_SPEED_FULL;
 655              		.loc 1 294 3 is_stmt 1 view .LVU119
 656              		.loc 1 294 26 is_stmt 0 view .LVU120
 657 001a 0222     		movs	r2, #2
 658 001c 8260     		str	r2, [r0, #8]
 295:Core/Src/usbd_conf.c ****   hpcd_USB_FS.Init.ep0_mps = EP_MPS_64;
 659              		.loc 1 295 3 is_stmt 1 view .LVU121
 660              		.loc 1 295 28 is_stmt 0 view .LVU122
 661 001e 0023     		movs	r3, #0
 662 0020 C360     		str	r3, [r0, #12]
 296:Core/Src/usbd_conf.c ****   hpcd_USB_FS.Init.phy_itface = PCD_PHY_EMBEDDED;
 663              		.loc 1 296 3 is_stmt 1 view .LVU123
 664              		.loc 1 296 31 is_stmt 0 view .LVU124
 665 0022 0261     		str	r2, [r0, #16]
 297:Core/Src/usbd_conf.c ****   hpcd_USB_FS.Init.low_power_enable = DISABLE;
 666              		.loc 1 297 3 is_stmt 1 view .LVU125
 667              		.loc 1 297 37 is_stmt 0 view .LVU126
 668 0024 8361     		str	r3, [r0, #24]
 298:Core/Src/usbd_conf.c ****   hpcd_USB_FS.Init.lpm_enable = DISABLE;
 669              		.loc 1 298 3 is_stmt 1 view .LVU127
 670              		.loc 1 298 31 is_stmt 0 view .LVU128
 671 0026 C361     		str	r3, [r0, #28]
 299:Core/Src/usbd_conf.c ****   hpcd_USB_FS.Init.battery_charging_enable = DISABLE;
 672              		.loc 1 299 3 is_stmt 1 view .LVU129
 673              		.loc 1 299 44 is_stmt 0 view .LVU130
 674 0028 0362     		str	r3, [r0, #32]
 300:Core/Src/usbd_conf.c ****   if (HAL_PCD_Init(&hpcd_USB_FS) != HAL_OK)
 675              		.loc 1 300 3 is_stmt 1 view .LVU131
 676              		.loc 1 300 7 is_stmt 0 view .LVU132
 677 002a FFF7FEFF 		bl	HAL_PCD_Init
 678              	.LVL53:
 301:Core/Src/usbd_conf.c ****   {
 302:Core/Src/usbd_conf.c ****     //_Error_Handler(__FILE__, __LINE__);
 303:Core/Src/usbd_conf.c ****   }
 679              		.loc 1 303 3 is_stmt 1 view .LVU133
 304:Core/Src/usbd_conf.c **** 
 305:Core/Src/usbd_conf.c ****   HAL_PCDEx_PMAConfig((PCD_HandleTypeDef*)pdev->pData , 0x00 , PCD_SNG_BUF, 0x18);
ARM GAS  /tmp/cc32IZtB.s 			page 18


 680              		.loc 1 305 3 view .LVU134
 681 002e 1823     		movs	r3, #24
 682 0030 0022     		movs	r2, #0
 683 0032 0021     		movs	r1, #0
 684 0034 6059     		ldr	r0, [r4, r5]
 685 0036 FFF7FEFF 		bl	HAL_PCDEx_PMAConfig
 686              	.LVL54:
 306:Core/Src/usbd_conf.c ****   HAL_PCDEx_PMAConfig((PCD_HandleTypeDef*)pdev->pData , 0x80 , PCD_SNG_BUF, 0x58);
 687              		.loc 1 306 3 view .LVU135
 688 003a 5823     		movs	r3, #88
 689 003c 0022     		movs	r2, #0
 690 003e 8021     		movs	r1, #128
 691 0040 6059     		ldr	r0, [r4, r5]
 692 0042 FFF7FEFF 		bl	HAL_PCDEx_PMAConfig
 693              	.LVL55:
 307:Core/Src/usbd_conf.c ****   HAL_PCDEx_PMAConfig((PCD_HandleTypeDef*)pdev->pData , 0x81 , PCD_SNG_BUF, 0xC0);
 694              		.loc 1 307 3 view .LVU136
 695 0046 C023     		movs	r3, #192
 696 0048 0022     		movs	r2, #0
 697 004a 8121     		movs	r1, #129
 698 004c 6059     		ldr	r0, [r4, r5]
 699 004e FFF7FEFF 		bl	HAL_PCDEx_PMAConfig
 700              	.LVL56:
 308:Core/Src/usbd_conf.c ****   HAL_PCDEx_PMAConfig((PCD_HandleTypeDef*)pdev->pData , 0x01 , PCD_SNG_BUF, 0x110);
 701              		.loc 1 308 3 view .LVU137
 702 0052 8823     		movs	r3, #136
 703 0054 5B00     		lsls	r3, r3, #1
 704 0056 0022     		movs	r2, #0
 705 0058 0121     		movs	r1, #1
 706 005a 6059     		ldr	r0, [r4, r5]
 707 005c FFF7FEFF 		bl	HAL_PCDEx_PMAConfig
 708              	.LVL57:
 309:Core/Src/usbd_conf.c ****   HAL_PCDEx_PMAConfig((PCD_HandleTypeDef*)pdev->pData , 0x82 , PCD_SNG_BUF, 0x100);
 709              		.loc 1 309 3 view .LVU138
 710              		.loc 1 309 47 is_stmt 0 view .LVU139
 711 0060 6059     		ldr	r0, [r4, r5]
 712              		.loc 1 309 3 view .LVU140
 713 0062 8023     		movs	r3, #128
 714 0064 5B00     		lsls	r3, r3, #1
 715 0066 0022     		movs	r2, #0
 716 0068 8221     		movs	r1, #130
 717 006a FFF7FEFF 		bl	HAL_PCDEx_PMAConfig
 718              	.LVL58:
 310:Core/Src/usbd_conf.c ****   return USBD_OK;
 719              		.loc 1 310 3 is_stmt 1 view .LVU141
 311:Core/Src/usbd_conf.c **** }
 720              		.loc 1 311 1 is_stmt 0 view .LVU142
 721 006e 0020     		movs	r0, #0
 722              		@ sp needed
 723              	.LVL59:
 724              		.loc 1 311 1 view .LVU143
 725 0070 70BD     		pop	{r4, r5, r6, pc}
 726              	.L27:
 727 0072 C046     		.align	2
 728              	.L26:
 729 0074 00000000 		.word	hpcd_USB_FS
 730 0078 005C0040 		.word	1073765376
ARM GAS  /tmp/cc32IZtB.s 			page 19


 731              		.cfi_endproc
 732              	.LFE56:
 734              		.section	.text.USBD_LL_DeInit,"ax",%progbits
 735              		.align	1
 736              		.global	USBD_LL_DeInit
 737              		.syntax unified
 738              		.code	16
 739              		.thumb_func
 740              		.fpu softvfp
 742              	USBD_LL_DeInit:
 743              	.LVL60:
 744              	.LFB57:
 312:Core/Src/usbd_conf.c **** 
 313:Core/Src/usbd_conf.c **** /**
 314:Core/Src/usbd_conf.c ****   * @brief  De-Initializes the low level portion of the device driver.
 315:Core/Src/usbd_conf.c ****   * @param  pdev: Device handle
 316:Core/Src/usbd_conf.c ****   * @retval USBD status
 317:Core/Src/usbd_conf.c ****   */
 318:Core/Src/usbd_conf.c **** USBD_StatusTypeDef USBD_LL_DeInit(USBD_HandleTypeDef *pdev)
 319:Core/Src/usbd_conf.c **** {
 745              		.loc 1 319 1 is_stmt 1 view -0
 746              		.cfi_startproc
 747              		@ args = 0, pretend = 0, frame = 0
 748              		@ frame_needed = 0, uses_anonymous_args = 0
 749              		.loc 1 319 1 is_stmt 0 view .LVU145
 750 0000 10B5     		push	{r4, lr}
 751              	.LCFI15:
 752              		.cfi_def_cfa_offset 8
 753              		.cfi_offset 4, -8
 754              		.cfi_offset 14, -4
 320:Core/Src/usbd_conf.c ****   HAL_StatusTypeDef hal_status = HAL_OK;
 755              		.loc 1 320 3 is_stmt 1 view .LVU146
 756              	.LVL61:
 321:Core/Src/usbd_conf.c ****   USBD_StatusTypeDef usb_status = USBD_OK;
 757              		.loc 1 321 3 view .LVU147
 322:Core/Src/usbd_conf.c **** 
 323:Core/Src/usbd_conf.c ****   hal_status = HAL_PCD_DeInit(pdev->pData);
 758              		.loc 1 323 3 view .LVU148
 759              		.loc 1 323 35 is_stmt 0 view .LVU149
 760 0002 8823     		movs	r3, #136
 761 0004 9B00     		lsls	r3, r3, #2
 762 0006 C058     		ldr	r0, [r0, r3]
 763              	.LVL62:
 764              		.loc 1 323 16 view .LVU150
 765 0008 FFF7FEFF 		bl	HAL_PCD_DeInit
 766              	.LVL63:
 324:Core/Src/usbd_conf.c **** 
 325:Core/Src/usbd_conf.c ****   switch (hal_status) {
 767              		.loc 1 325 3 is_stmt 1 view .LVU151
 768 000c 0228     		cmp	r0, #2
 769 000e 04D0     		beq	.L30
 770 0010 05D8     		bhi	.L31
 771 0012 0028     		cmp	r0, #0
 772 0014 00D0     		beq	.L29
 326:Core/Src/usbd_conf.c ****     case HAL_OK :
 327:Core/Src/usbd_conf.c ****       usb_status = USBD_OK;
 328:Core/Src/usbd_conf.c ****     break;
ARM GAS  /tmp/cc32IZtB.s 			page 20


 329:Core/Src/usbd_conf.c ****     case HAL_ERROR :
 330:Core/Src/usbd_conf.c ****       usb_status = USBD_FAIL;
 773              		.loc 1 330 18 is_stmt 0 view .LVU152
 774 0016 0220     		movs	r0, #2
 775              	.LVL64:
 776              	.L29:
 331:Core/Src/usbd_conf.c ****     break;
 332:Core/Src/usbd_conf.c ****     case HAL_BUSY :
 333:Core/Src/usbd_conf.c ****       usb_status = USBD_BUSY;
 334:Core/Src/usbd_conf.c ****     break;
 335:Core/Src/usbd_conf.c ****     case HAL_TIMEOUT :
 336:Core/Src/usbd_conf.c ****       usb_status = USBD_FAIL;
 337:Core/Src/usbd_conf.c ****     break;
 338:Core/Src/usbd_conf.c ****     default :
 339:Core/Src/usbd_conf.c ****       usb_status = USBD_FAIL;
 340:Core/Src/usbd_conf.c ****     break;
 341:Core/Src/usbd_conf.c ****   }
 342:Core/Src/usbd_conf.c ****   return usb_status;
 777              		.loc 1 342 3 is_stmt 1 view .LVU153
 343:Core/Src/usbd_conf.c **** }
 778              		.loc 1 343 1 is_stmt 0 view .LVU154
 779              		@ sp needed
 780 0018 10BD     		pop	{r4, pc}
 781              	.LVL65:
 782              	.L30:
 333:Core/Src/usbd_conf.c ****     break;
 783              		.loc 1 333 18 view .LVU155
 784 001a 0120     		movs	r0, #1
 785              	.LVL66:
 333:Core/Src/usbd_conf.c ****     break;
 786              		.loc 1 333 18 view .LVU156
 787 001c FCE7     		b	.L29
 788              	.LVL67:
 789              	.L31:
 336:Core/Src/usbd_conf.c ****     break;
 790              		.loc 1 336 18 view .LVU157
 791 001e 0220     		movs	r0, #2
 792              	.LVL68:
 336:Core/Src/usbd_conf.c ****     break;
 793              		.loc 1 336 18 view .LVU158
 794 0020 FAE7     		b	.L29
 795              		.cfi_endproc
 796              	.LFE57:
 798              		.section	.text.USBD_LL_Start,"ax",%progbits
 799              		.align	1
 800              		.global	USBD_LL_Start
 801              		.syntax unified
 802              		.code	16
 803              		.thumb_func
 804              		.fpu softvfp
 806              	USBD_LL_Start:
 807              	.LVL69:
 808              	.LFB58:
 344:Core/Src/usbd_conf.c **** 
 345:Core/Src/usbd_conf.c **** /**
 346:Core/Src/usbd_conf.c ****   * @brief  Starts the low level portion of the device driver.
 347:Core/Src/usbd_conf.c ****   * @param  pdev: Device handle
ARM GAS  /tmp/cc32IZtB.s 			page 21


 348:Core/Src/usbd_conf.c ****   * @retval USBD status
 349:Core/Src/usbd_conf.c ****   */
 350:Core/Src/usbd_conf.c **** USBD_StatusTypeDef USBD_LL_Start(USBD_HandleTypeDef *pdev)
 351:Core/Src/usbd_conf.c **** {
 809              		.loc 1 351 1 is_stmt 1 view -0
 810              		.cfi_startproc
 811              		@ args = 0, pretend = 0, frame = 0
 812              		@ frame_needed = 0, uses_anonymous_args = 0
 813              		.loc 1 351 1 is_stmt 0 view .LVU160
 814 0000 10B5     		push	{r4, lr}
 815              	.LCFI16:
 816              		.cfi_def_cfa_offset 8
 817              		.cfi_offset 4, -8
 818              		.cfi_offset 14, -4
 352:Core/Src/usbd_conf.c ****   HAL_StatusTypeDef hal_status = HAL_OK;
 819              		.loc 1 352 3 is_stmt 1 view .LVU161
 820              	.LVL70:
 353:Core/Src/usbd_conf.c ****   USBD_StatusTypeDef usb_status = USBD_OK;
 821              		.loc 1 353 3 view .LVU162
 354:Core/Src/usbd_conf.c **** 
 355:Core/Src/usbd_conf.c ****   hal_status = HAL_PCD_Start(pdev->pData);
 822              		.loc 1 355 3 view .LVU163
 823              		.loc 1 355 34 is_stmt 0 view .LVU164
 824 0002 8823     		movs	r3, #136
 825 0004 9B00     		lsls	r3, r3, #2
 826 0006 C058     		ldr	r0, [r0, r3]
 827              	.LVL71:
 828              		.loc 1 355 16 view .LVU165
 829 0008 FFF7FEFF 		bl	HAL_PCD_Start
 830              	.LVL72:
 356:Core/Src/usbd_conf.c **** 
 357:Core/Src/usbd_conf.c ****   switch (hal_status) {
 831              		.loc 1 357 3 is_stmt 1 view .LVU166
 832 000c 0228     		cmp	r0, #2
 833 000e 04D0     		beq	.L35
 834 0010 05D8     		bhi	.L36
 835 0012 0028     		cmp	r0, #0
 836 0014 00D0     		beq	.L34
 358:Core/Src/usbd_conf.c ****     case HAL_OK :
 359:Core/Src/usbd_conf.c ****       usb_status = USBD_OK;
 360:Core/Src/usbd_conf.c ****     break;
 361:Core/Src/usbd_conf.c ****     case HAL_ERROR :
 362:Core/Src/usbd_conf.c ****       usb_status = USBD_FAIL;
 837              		.loc 1 362 18 is_stmt 0 view .LVU167
 838 0016 0220     		movs	r0, #2
 839              	.LVL73:
 840              	.L34:
 363:Core/Src/usbd_conf.c ****     break;
 364:Core/Src/usbd_conf.c ****     case HAL_BUSY :
 365:Core/Src/usbd_conf.c ****       usb_status = USBD_BUSY;
 366:Core/Src/usbd_conf.c ****     break;
 367:Core/Src/usbd_conf.c ****     case HAL_TIMEOUT :
 368:Core/Src/usbd_conf.c ****       usb_status = USBD_FAIL;
 369:Core/Src/usbd_conf.c ****     break;
 370:Core/Src/usbd_conf.c ****     default :
 371:Core/Src/usbd_conf.c ****       usb_status = USBD_FAIL;
 372:Core/Src/usbd_conf.c ****     break;
ARM GAS  /tmp/cc32IZtB.s 			page 22


 373:Core/Src/usbd_conf.c ****   }
 374:Core/Src/usbd_conf.c ****   return usb_status;
 841              		.loc 1 374 3 is_stmt 1 view .LVU168
 375:Core/Src/usbd_conf.c **** }
 842              		.loc 1 375 1 is_stmt 0 view .LVU169
 843              		@ sp needed
 844 0018 10BD     		pop	{r4, pc}
 845              	.LVL74:
 846              	.L35:
 365:Core/Src/usbd_conf.c ****     break;
 847              		.loc 1 365 18 view .LVU170
 848 001a 0120     		movs	r0, #1
 849              	.LVL75:
 365:Core/Src/usbd_conf.c ****     break;
 850              		.loc 1 365 18 view .LVU171
 851 001c FCE7     		b	.L34
 852              	.LVL76:
 853              	.L36:
 368:Core/Src/usbd_conf.c ****     break;
 854              		.loc 1 368 18 view .LVU172
 855 001e 0220     		movs	r0, #2
 856              	.LVL77:
 368:Core/Src/usbd_conf.c ****     break;
 857              		.loc 1 368 18 view .LVU173
 858 0020 FAE7     		b	.L34
 859              		.cfi_endproc
 860              	.LFE58:
 862              		.section	.text.USBD_LL_Stop,"ax",%progbits
 863              		.align	1
 864              		.global	USBD_LL_Stop
 865              		.syntax unified
 866              		.code	16
 867              		.thumb_func
 868              		.fpu softvfp
 870              	USBD_LL_Stop:
 871              	.LVL78:
 872              	.LFB59:
 376:Core/Src/usbd_conf.c **** 
 377:Core/Src/usbd_conf.c **** /**
 378:Core/Src/usbd_conf.c ****   * @brief  Stops the low level portion of the device driver.
 379:Core/Src/usbd_conf.c ****   * @param  pdev: Device handle
 380:Core/Src/usbd_conf.c ****   * @retval USBD status
 381:Core/Src/usbd_conf.c ****   */
 382:Core/Src/usbd_conf.c **** USBD_StatusTypeDef USBD_LL_Stop(USBD_HandleTypeDef *pdev)
 383:Core/Src/usbd_conf.c **** {
 873              		.loc 1 383 1 is_stmt 1 view -0
 874              		.cfi_startproc
 875              		@ args = 0, pretend = 0, frame = 0
 876              		@ frame_needed = 0, uses_anonymous_args = 0
 877              		.loc 1 383 1 is_stmt 0 view .LVU175
 878 0000 10B5     		push	{r4, lr}
 879              	.LCFI17:
 880              		.cfi_def_cfa_offset 8
 881              		.cfi_offset 4, -8
 882              		.cfi_offset 14, -4
 384:Core/Src/usbd_conf.c ****   HAL_StatusTypeDef hal_status = HAL_OK;
 883              		.loc 1 384 3 is_stmt 1 view .LVU176
ARM GAS  /tmp/cc32IZtB.s 			page 23


 884              	.LVL79:
 385:Core/Src/usbd_conf.c ****   USBD_StatusTypeDef usb_status = USBD_OK;
 885              		.loc 1 385 3 view .LVU177
 386:Core/Src/usbd_conf.c **** 
 387:Core/Src/usbd_conf.c ****   hal_status = HAL_PCD_Stop(pdev->pData);
 886              		.loc 1 387 3 view .LVU178
 887              		.loc 1 387 33 is_stmt 0 view .LVU179
 888 0002 8823     		movs	r3, #136
 889 0004 9B00     		lsls	r3, r3, #2
 890 0006 C058     		ldr	r0, [r0, r3]
 891              	.LVL80:
 892              		.loc 1 387 16 view .LVU180
 893 0008 FFF7FEFF 		bl	HAL_PCD_Stop
 894              	.LVL81:
 388:Core/Src/usbd_conf.c **** 
 389:Core/Src/usbd_conf.c ****   switch (hal_status) {
 895              		.loc 1 389 3 is_stmt 1 view .LVU181
 896 000c 0228     		cmp	r0, #2
 897 000e 04D0     		beq	.L40
 898 0010 05D8     		bhi	.L41
 899 0012 0028     		cmp	r0, #0
 900 0014 00D0     		beq	.L39
 390:Core/Src/usbd_conf.c ****     case HAL_OK :
 391:Core/Src/usbd_conf.c ****       usb_status = USBD_OK;
 392:Core/Src/usbd_conf.c ****     break;
 393:Core/Src/usbd_conf.c ****     case HAL_ERROR :
 394:Core/Src/usbd_conf.c ****       usb_status = USBD_FAIL;
 901              		.loc 1 394 18 is_stmt 0 view .LVU182
 902 0016 0220     		movs	r0, #2
 903              	.LVL82:
 904              	.L39:
 395:Core/Src/usbd_conf.c ****     break;
 396:Core/Src/usbd_conf.c ****     case HAL_BUSY :
 397:Core/Src/usbd_conf.c ****       usb_status = USBD_BUSY;
 398:Core/Src/usbd_conf.c ****     break;
 399:Core/Src/usbd_conf.c ****     case HAL_TIMEOUT :
 400:Core/Src/usbd_conf.c ****       usb_status = USBD_FAIL;
 401:Core/Src/usbd_conf.c ****     break;
 402:Core/Src/usbd_conf.c ****     default :
 403:Core/Src/usbd_conf.c ****       usb_status = USBD_FAIL;
 404:Core/Src/usbd_conf.c ****     break;
 405:Core/Src/usbd_conf.c ****   }
 406:Core/Src/usbd_conf.c ****   return usb_status;
 905              		.loc 1 406 3 is_stmt 1 view .LVU183
 407:Core/Src/usbd_conf.c **** }
 906              		.loc 1 407 1 is_stmt 0 view .LVU184
 907              		@ sp needed
 908 0018 10BD     		pop	{r4, pc}
 909              	.LVL83:
 910              	.L40:
 397:Core/Src/usbd_conf.c ****     break;
 911              		.loc 1 397 18 view .LVU185
 912 001a 0120     		movs	r0, #1
 913              	.LVL84:
 397:Core/Src/usbd_conf.c ****     break;
 914              		.loc 1 397 18 view .LVU186
 915 001c FCE7     		b	.L39
ARM GAS  /tmp/cc32IZtB.s 			page 24


 916              	.LVL85:
 917              	.L41:
 400:Core/Src/usbd_conf.c ****     break;
 918              		.loc 1 400 18 view .LVU187
 919 001e 0220     		movs	r0, #2
 920              	.LVL86:
 400:Core/Src/usbd_conf.c ****     break;
 921              		.loc 1 400 18 view .LVU188
 922 0020 FAE7     		b	.L39
 923              		.cfi_endproc
 924              	.LFE59:
 926              		.section	.text.USBD_LL_OpenEP,"ax",%progbits
 927              		.align	1
 928              		.global	USBD_LL_OpenEP
 929              		.syntax unified
 930              		.code	16
 931              		.thumb_func
 932              		.fpu softvfp
 934              	USBD_LL_OpenEP:
 935              	.LVL87:
 936              	.LFB60:
 408:Core/Src/usbd_conf.c **** 
 409:Core/Src/usbd_conf.c **** /**
 410:Core/Src/usbd_conf.c ****   * @brief  Opens an endpoint of the low level driver.
 411:Core/Src/usbd_conf.c ****   * @param  pdev: Device handle
 412:Core/Src/usbd_conf.c ****   * @param  ep_addr: Endpoint number
 413:Core/Src/usbd_conf.c ****   * @param  ep_type: Endpoint type
 414:Core/Src/usbd_conf.c ****   * @param  ep_mps: Endpoint max packet size
 415:Core/Src/usbd_conf.c ****   * @retval USBD status
 416:Core/Src/usbd_conf.c ****   */
 417:Core/Src/usbd_conf.c **** USBD_StatusTypeDef USBD_LL_OpenEP(USBD_HandleTypeDef *pdev, uint8_t ep_addr, uint8_t ep_type, uint1
 418:Core/Src/usbd_conf.c **** {
 937              		.loc 1 418 1 is_stmt 1 view -0
 938              		.cfi_startproc
 939              		@ args = 0, pretend = 0, frame = 0
 940              		@ frame_needed = 0, uses_anonymous_args = 0
 941              		.loc 1 418 1 is_stmt 0 view .LVU190
 942 0000 10B5     		push	{r4, lr}
 943              	.LCFI18:
 944              		.cfi_def_cfa_offset 8
 945              		.cfi_offset 4, -8
 946              		.cfi_offset 14, -4
 947 0002 1400     		movs	r4, r2
 948 0004 1A00     		movs	r2, r3
 949              	.LVL88:
 419:Core/Src/usbd_conf.c ****   HAL_StatusTypeDef hal_status = HAL_OK;
 950              		.loc 1 419 3 is_stmt 1 view .LVU191
 420:Core/Src/usbd_conf.c ****   USBD_StatusTypeDef usb_status = USBD_OK;
 951              		.loc 1 420 3 view .LVU192
 421:Core/Src/usbd_conf.c **** 
 422:Core/Src/usbd_conf.c ****   hal_status = HAL_PCD_EP_Open(pdev->pData, ep_addr, ep_mps, ep_type);
 952              		.loc 1 422 3 view .LVU193
 953              		.loc 1 422 36 is_stmt 0 view .LVU194
 954 0006 8823     		movs	r3, #136
 955              	.LVL89:
 956              		.loc 1 422 36 view .LVU195
 957 0008 9B00     		lsls	r3, r3, #2
ARM GAS  /tmp/cc32IZtB.s 			page 25


 958 000a C058     		ldr	r0, [r0, r3]
 959              	.LVL90:
 960              		.loc 1 422 16 view .LVU196
 961 000c 2300     		movs	r3, r4
 962 000e FFF7FEFF 		bl	HAL_PCD_EP_Open
 963              	.LVL91:
 423:Core/Src/usbd_conf.c **** 
 424:Core/Src/usbd_conf.c ****   switch (hal_status) {
 964              		.loc 1 424 3 is_stmt 1 view .LVU197
 965 0012 0228     		cmp	r0, #2
 966 0014 04D0     		beq	.L45
 967 0016 05D8     		bhi	.L46
 968 0018 0028     		cmp	r0, #0
 969 001a 00D0     		beq	.L44
 425:Core/Src/usbd_conf.c ****     case HAL_OK :
 426:Core/Src/usbd_conf.c ****       usb_status = USBD_OK;
 427:Core/Src/usbd_conf.c ****     break;
 428:Core/Src/usbd_conf.c ****     case HAL_ERROR :
 429:Core/Src/usbd_conf.c ****       usb_status = USBD_FAIL;
 970              		.loc 1 429 18 is_stmt 0 view .LVU198
 971 001c 0220     		movs	r0, #2
 972              	.LVL92:
 973              	.L44:
 430:Core/Src/usbd_conf.c ****     break;
 431:Core/Src/usbd_conf.c ****     case HAL_BUSY :
 432:Core/Src/usbd_conf.c ****       usb_status = USBD_BUSY;
 433:Core/Src/usbd_conf.c ****     break;
 434:Core/Src/usbd_conf.c ****     case HAL_TIMEOUT :
 435:Core/Src/usbd_conf.c ****       usb_status = USBD_FAIL;
 436:Core/Src/usbd_conf.c ****     break;
 437:Core/Src/usbd_conf.c ****     default :
 438:Core/Src/usbd_conf.c ****       usb_status = USBD_FAIL;
 439:Core/Src/usbd_conf.c ****     break;
 440:Core/Src/usbd_conf.c ****   }
 441:Core/Src/usbd_conf.c ****   return usb_status;
 974              		.loc 1 441 3 is_stmt 1 view .LVU199
 442:Core/Src/usbd_conf.c **** }
 975              		.loc 1 442 1 is_stmt 0 view .LVU200
 976              		@ sp needed
 977 001e 10BD     		pop	{r4, pc}
 978              	.LVL93:
 979              	.L45:
 432:Core/Src/usbd_conf.c ****     break;
 980              		.loc 1 432 18 view .LVU201
 981 0020 0120     		movs	r0, #1
 982              	.LVL94:
 432:Core/Src/usbd_conf.c ****     break;
 983              		.loc 1 432 18 view .LVU202
 984 0022 FCE7     		b	.L44
 985              	.LVL95:
 986              	.L46:
 435:Core/Src/usbd_conf.c ****     break;
 987              		.loc 1 435 18 view .LVU203
 988 0024 0220     		movs	r0, #2
 989              	.LVL96:
 435:Core/Src/usbd_conf.c ****     break;
 990              		.loc 1 435 18 view .LVU204
ARM GAS  /tmp/cc32IZtB.s 			page 26


 991 0026 FAE7     		b	.L44
 992              		.cfi_endproc
 993              	.LFE60:
 995              		.section	.text.USBD_LL_CloseEP,"ax",%progbits
 996              		.align	1
 997              		.global	USBD_LL_CloseEP
 998              		.syntax unified
 999              		.code	16
 1000              		.thumb_func
 1001              		.fpu softvfp
 1003              	USBD_LL_CloseEP:
 1004              	.LVL97:
 1005              	.LFB61:
 443:Core/Src/usbd_conf.c **** 
 444:Core/Src/usbd_conf.c **** /**
 445:Core/Src/usbd_conf.c ****   * @brief  Closes an endpoint of the low level driver.
 446:Core/Src/usbd_conf.c ****   * @param  pdev: Device handle
 447:Core/Src/usbd_conf.c ****   * @param  ep_addr: Endpoint number
 448:Core/Src/usbd_conf.c ****   * @retval USBD status
 449:Core/Src/usbd_conf.c ****   */
 450:Core/Src/usbd_conf.c **** USBD_StatusTypeDef USBD_LL_CloseEP(USBD_HandleTypeDef *pdev, uint8_t ep_addr)
 451:Core/Src/usbd_conf.c **** {
 1006              		.loc 1 451 1 is_stmt 1 view -0
 1007              		.cfi_startproc
 1008              		@ args = 0, pretend = 0, frame = 0
 1009              		@ frame_needed = 0, uses_anonymous_args = 0
 1010              		.loc 1 451 1 is_stmt 0 view .LVU206
 1011 0000 10B5     		push	{r4, lr}
 1012              	.LCFI19:
 1013              		.cfi_def_cfa_offset 8
 1014              		.cfi_offset 4, -8
 1015              		.cfi_offset 14, -4
 452:Core/Src/usbd_conf.c ****   HAL_StatusTypeDef hal_status = HAL_OK;
 1016              		.loc 1 452 3 is_stmt 1 view .LVU207
 1017              	.LVL98:
 453:Core/Src/usbd_conf.c ****   USBD_StatusTypeDef usb_status = USBD_OK;
 1018              		.loc 1 453 3 view .LVU208
 454:Core/Src/usbd_conf.c **** 
 455:Core/Src/usbd_conf.c ****   hal_status = HAL_PCD_EP_Close(pdev->pData, ep_addr);
 1019              		.loc 1 455 3 view .LVU209
 1020              		.loc 1 455 37 is_stmt 0 view .LVU210
 1021 0002 8823     		movs	r3, #136
 1022 0004 9B00     		lsls	r3, r3, #2
 1023 0006 C058     		ldr	r0, [r0, r3]
 1024              	.LVL99:
 1025              		.loc 1 455 16 view .LVU211
 1026 0008 FFF7FEFF 		bl	HAL_PCD_EP_Close
 1027              	.LVL100:
 456:Core/Src/usbd_conf.c **** 
 457:Core/Src/usbd_conf.c ****   switch (hal_status) {
 1028              		.loc 1 457 3 is_stmt 1 view .LVU212
 1029 000c 0228     		cmp	r0, #2
 1030 000e 04D0     		beq	.L50
 1031 0010 05D8     		bhi	.L51
 1032 0012 0028     		cmp	r0, #0
 1033 0014 00D0     		beq	.L49
 458:Core/Src/usbd_conf.c ****     case HAL_OK :
ARM GAS  /tmp/cc32IZtB.s 			page 27


 459:Core/Src/usbd_conf.c ****       usb_status = USBD_OK;
 460:Core/Src/usbd_conf.c ****     break;
 461:Core/Src/usbd_conf.c ****     case HAL_ERROR :
 462:Core/Src/usbd_conf.c ****       usb_status = USBD_FAIL;
 1034              		.loc 1 462 18 is_stmt 0 view .LVU213
 1035 0016 0220     		movs	r0, #2
 1036              	.LVL101:
 1037              	.L49:
 463:Core/Src/usbd_conf.c ****     break;
 464:Core/Src/usbd_conf.c ****     case HAL_BUSY :
 465:Core/Src/usbd_conf.c ****       usb_status = USBD_BUSY;
 466:Core/Src/usbd_conf.c ****     break;
 467:Core/Src/usbd_conf.c ****     case HAL_TIMEOUT :
 468:Core/Src/usbd_conf.c ****       usb_status = USBD_FAIL;
 469:Core/Src/usbd_conf.c ****     break;
 470:Core/Src/usbd_conf.c ****     default :
 471:Core/Src/usbd_conf.c ****       usb_status = USBD_FAIL;
 472:Core/Src/usbd_conf.c ****     break;
 473:Core/Src/usbd_conf.c ****   }
 474:Core/Src/usbd_conf.c ****   return usb_status;
 1038              		.loc 1 474 3 is_stmt 1 view .LVU214
 475:Core/Src/usbd_conf.c **** }
 1039              		.loc 1 475 1 is_stmt 0 view .LVU215
 1040              		@ sp needed
 1041 0018 10BD     		pop	{r4, pc}
 1042              	.LVL102:
 1043              	.L50:
 465:Core/Src/usbd_conf.c ****     break;
 1044              		.loc 1 465 18 view .LVU216
 1045 001a 0120     		movs	r0, #1
 1046              	.LVL103:
 465:Core/Src/usbd_conf.c ****     break;
 1047              		.loc 1 465 18 view .LVU217
 1048 001c FCE7     		b	.L49
 1049              	.LVL104:
 1050              	.L51:
 468:Core/Src/usbd_conf.c ****     break;
 1051              		.loc 1 468 18 view .LVU218
 1052 001e 0220     		movs	r0, #2
 1053              	.LVL105:
 468:Core/Src/usbd_conf.c ****     break;
 1054              		.loc 1 468 18 view .LVU219
 1055 0020 FAE7     		b	.L49
 1056              		.cfi_endproc
 1057              	.LFE61:
 1059              		.section	.text.USBD_LL_FlushEP,"ax",%progbits
 1060              		.align	1
 1061              		.global	USBD_LL_FlushEP
 1062              		.syntax unified
 1063              		.code	16
 1064              		.thumb_func
 1065              		.fpu softvfp
 1067              	USBD_LL_FlushEP:
 1068              	.LVL106:
 1069              	.LFB62:
 476:Core/Src/usbd_conf.c **** 
 477:Core/Src/usbd_conf.c **** /**
ARM GAS  /tmp/cc32IZtB.s 			page 28


 478:Core/Src/usbd_conf.c ****   * @brief  Flushes an endpoint of the Low Level Driver.
 479:Core/Src/usbd_conf.c ****   * @param  pdev: Device handle
 480:Core/Src/usbd_conf.c ****   * @param  ep_addr: Endpoint number
 481:Core/Src/usbd_conf.c ****   * @retval USBD status
 482:Core/Src/usbd_conf.c ****   */
 483:Core/Src/usbd_conf.c **** USBD_StatusTypeDef USBD_LL_FlushEP(USBD_HandleTypeDef *pdev, uint8_t ep_addr)
 484:Core/Src/usbd_conf.c **** {
 1070              		.loc 1 484 1 is_stmt 1 view -0
 1071              		.cfi_startproc
 1072              		@ args = 0, pretend = 0, frame = 0
 1073              		@ frame_needed = 0, uses_anonymous_args = 0
 1074              		.loc 1 484 1 is_stmt 0 view .LVU221
 1075 0000 10B5     		push	{r4, lr}
 1076              	.LCFI20:
 1077              		.cfi_def_cfa_offset 8
 1078              		.cfi_offset 4, -8
 1079              		.cfi_offset 14, -4
 485:Core/Src/usbd_conf.c ****   HAL_StatusTypeDef hal_status = HAL_OK;
 1080              		.loc 1 485 3 is_stmt 1 view .LVU222
 1081              	.LVL107:
 486:Core/Src/usbd_conf.c ****   USBD_StatusTypeDef usb_status = USBD_OK;
 1082              		.loc 1 486 3 view .LVU223
 487:Core/Src/usbd_conf.c **** 
 488:Core/Src/usbd_conf.c ****   hal_status = HAL_PCD_EP_Flush(pdev->pData, ep_addr);
 1083              		.loc 1 488 3 view .LVU224
 1084              		.loc 1 488 37 is_stmt 0 view .LVU225
 1085 0002 8823     		movs	r3, #136
 1086 0004 9B00     		lsls	r3, r3, #2
 1087 0006 C058     		ldr	r0, [r0, r3]
 1088              	.LVL108:
 1089              		.loc 1 488 16 view .LVU226
 1090 0008 FFF7FEFF 		bl	HAL_PCD_EP_Flush
 1091              	.LVL109:
 489:Core/Src/usbd_conf.c **** 
 490:Core/Src/usbd_conf.c ****   switch (hal_status) {
 1092              		.loc 1 490 3 is_stmt 1 view .LVU227
 1093 000c 0228     		cmp	r0, #2
 1094 000e 04D0     		beq	.L55
 1095 0010 05D8     		bhi	.L56
 1096 0012 0028     		cmp	r0, #0
 1097 0014 00D0     		beq	.L54
 491:Core/Src/usbd_conf.c ****     case HAL_OK :
 492:Core/Src/usbd_conf.c ****       usb_status = USBD_OK;
 493:Core/Src/usbd_conf.c ****     break;
 494:Core/Src/usbd_conf.c ****     case HAL_ERROR :
 495:Core/Src/usbd_conf.c ****       usb_status = USBD_FAIL;
 1098              		.loc 1 495 18 is_stmt 0 view .LVU228
 1099 0016 0220     		movs	r0, #2
 1100              	.LVL110:
 1101              	.L54:
 496:Core/Src/usbd_conf.c ****     break;
 497:Core/Src/usbd_conf.c ****     case HAL_BUSY :
 498:Core/Src/usbd_conf.c ****       usb_status = USBD_BUSY;
 499:Core/Src/usbd_conf.c ****     break;
 500:Core/Src/usbd_conf.c ****     case HAL_TIMEOUT :
 501:Core/Src/usbd_conf.c ****       usb_status = USBD_FAIL;
 502:Core/Src/usbd_conf.c ****     break;
ARM GAS  /tmp/cc32IZtB.s 			page 29


 503:Core/Src/usbd_conf.c ****     default :
 504:Core/Src/usbd_conf.c ****       usb_status = USBD_FAIL;
 505:Core/Src/usbd_conf.c ****     break;
 506:Core/Src/usbd_conf.c ****   }
 507:Core/Src/usbd_conf.c ****   return usb_status;
 1102              		.loc 1 507 3 is_stmt 1 view .LVU229
 508:Core/Src/usbd_conf.c **** }
 1103              		.loc 1 508 1 is_stmt 0 view .LVU230
 1104              		@ sp needed
 1105 0018 10BD     		pop	{r4, pc}
 1106              	.LVL111:
 1107              	.L55:
 498:Core/Src/usbd_conf.c ****     break;
 1108              		.loc 1 498 18 view .LVU231
 1109 001a 0120     		movs	r0, #1
 1110              	.LVL112:
 498:Core/Src/usbd_conf.c ****     break;
 1111              		.loc 1 498 18 view .LVU232
 1112 001c FCE7     		b	.L54
 1113              	.LVL113:
 1114              	.L56:
 501:Core/Src/usbd_conf.c ****     break;
 1115              		.loc 1 501 18 view .LVU233
 1116 001e 0220     		movs	r0, #2
 1117              	.LVL114:
 501:Core/Src/usbd_conf.c ****     break;
 1118              		.loc 1 501 18 view .LVU234
 1119 0020 FAE7     		b	.L54
 1120              		.cfi_endproc
 1121              	.LFE62:
 1123              		.section	.text.USBD_LL_StallEP,"ax",%progbits
 1124              		.align	1
 1125              		.global	USBD_LL_StallEP
 1126              		.syntax unified
 1127              		.code	16
 1128              		.thumb_func
 1129              		.fpu softvfp
 1131              	USBD_LL_StallEP:
 1132              	.LVL115:
 1133              	.LFB63:
 509:Core/Src/usbd_conf.c **** 
 510:Core/Src/usbd_conf.c **** /**
 511:Core/Src/usbd_conf.c ****   * @brief  Sets a Stall condition on an endpoint of the Low Level Driver.
 512:Core/Src/usbd_conf.c ****   * @param  pdev: Device handle
 513:Core/Src/usbd_conf.c ****   * @param  ep_addr: Endpoint number
 514:Core/Src/usbd_conf.c ****   * @retval USBD status
 515:Core/Src/usbd_conf.c ****   */
 516:Core/Src/usbd_conf.c **** USBD_StatusTypeDef USBD_LL_StallEP(USBD_HandleTypeDef *pdev, uint8_t ep_addr)
 517:Core/Src/usbd_conf.c **** {
 1134              		.loc 1 517 1 is_stmt 1 view -0
 1135              		.cfi_startproc
 1136              		@ args = 0, pretend = 0, frame = 0
 1137              		@ frame_needed = 0, uses_anonymous_args = 0
 1138              		.loc 1 517 1 is_stmt 0 view .LVU236
 1139 0000 10B5     		push	{r4, lr}
 1140              	.LCFI21:
 1141              		.cfi_def_cfa_offset 8
ARM GAS  /tmp/cc32IZtB.s 			page 30


 1142              		.cfi_offset 4, -8
 1143              		.cfi_offset 14, -4
 518:Core/Src/usbd_conf.c ****   HAL_StatusTypeDef hal_status = HAL_OK;
 1144              		.loc 1 518 3 is_stmt 1 view .LVU237
 1145              	.LVL116:
 519:Core/Src/usbd_conf.c ****   USBD_StatusTypeDef usb_status = USBD_OK;
 1146              		.loc 1 519 3 view .LVU238
 520:Core/Src/usbd_conf.c **** 
 521:Core/Src/usbd_conf.c ****   hal_status = HAL_PCD_EP_SetStall(pdev->pData, ep_addr);
 1147              		.loc 1 521 3 view .LVU239
 1148              		.loc 1 521 40 is_stmt 0 view .LVU240
 1149 0002 8823     		movs	r3, #136
 1150 0004 9B00     		lsls	r3, r3, #2
 1151 0006 C058     		ldr	r0, [r0, r3]
 1152              	.LVL117:
 1153              		.loc 1 521 16 view .LVU241
 1154 0008 FFF7FEFF 		bl	HAL_PCD_EP_SetStall
 1155              	.LVL118:
 522:Core/Src/usbd_conf.c **** 
 523:Core/Src/usbd_conf.c ****   switch (hal_status) {
 1156              		.loc 1 523 3 is_stmt 1 view .LVU242
 1157 000c 0228     		cmp	r0, #2
 1158 000e 04D0     		beq	.L60
 1159 0010 05D8     		bhi	.L61
 1160 0012 0028     		cmp	r0, #0
 1161 0014 00D0     		beq	.L59
 524:Core/Src/usbd_conf.c ****     case HAL_OK :
 525:Core/Src/usbd_conf.c ****       usb_status = USBD_OK;
 526:Core/Src/usbd_conf.c ****     break;
 527:Core/Src/usbd_conf.c ****     case HAL_ERROR :
 528:Core/Src/usbd_conf.c ****       usb_status = USBD_FAIL;
 1162              		.loc 1 528 18 is_stmt 0 view .LVU243
 1163 0016 0220     		movs	r0, #2
 1164              	.LVL119:
 1165              	.L59:
 529:Core/Src/usbd_conf.c ****     break;
 530:Core/Src/usbd_conf.c ****     case HAL_BUSY :
 531:Core/Src/usbd_conf.c ****       usb_status = USBD_BUSY;
 532:Core/Src/usbd_conf.c ****     break;
 533:Core/Src/usbd_conf.c ****     case HAL_TIMEOUT :
 534:Core/Src/usbd_conf.c ****       usb_status = USBD_FAIL;
 535:Core/Src/usbd_conf.c ****     break;
 536:Core/Src/usbd_conf.c ****     default :
 537:Core/Src/usbd_conf.c ****       usb_status = USBD_FAIL;
 538:Core/Src/usbd_conf.c ****     break;
 539:Core/Src/usbd_conf.c ****   }
 540:Core/Src/usbd_conf.c ****   return usb_status;
 1166              		.loc 1 540 3 is_stmt 1 view .LVU244
 541:Core/Src/usbd_conf.c **** }
 1167              		.loc 1 541 1 is_stmt 0 view .LVU245
 1168              		@ sp needed
 1169 0018 10BD     		pop	{r4, pc}
 1170              	.LVL120:
 1171              	.L60:
 531:Core/Src/usbd_conf.c ****     break;
 1172              		.loc 1 531 18 view .LVU246
 1173 001a 0120     		movs	r0, #1
ARM GAS  /tmp/cc32IZtB.s 			page 31


 1174              	.LVL121:
 531:Core/Src/usbd_conf.c ****     break;
 1175              		.loc 1 531 18 view .LVU247
 1176 001c FCE7     		b	.L59
 1177              	.LVL122:
 1178              	.L61:
 534:Core/Src/usbd_conf.c ****     break;
 1179              		.loc 1 534 18 view .LVU248
 1180 001e 0220     		movs	r0, #2
 1181              	.LVL123:
 534:Core/Src/usbd_conf.c ****     break;
 1182              		.loc 1 534 18 view .LVU249
 1183 0020 FAE7     		b	.L59
 1184              		.cfi_endproc
 1185              	.LFE63:
 1187              		.section	.text.USBD_LL_ClearStallEP,"ax",%progbits
 1188              		.align	1
 1189              		.global	USBD_LL_ClearStallEP
 1190              		.syntax unified
 1191              		.code	16
 1192              		.thumb_func
 1193              		.fpu softvfp
 1195              	USBD_LL_ClearStallEP:
 1196              	.LVL124:
 1197              	.LFB64:
 542:Core/Src/usbd_conf.c **** 
 543:Core/Src/usbd_conf.c **** /**
 544:Core/Src/usbd_conf.c ****   * @brief  Clears a Stall condition on an endpoint of the Low Level Driver.
 545:Core/Src/usbd_conf.c ****   * @param  pdev: Device handle
 546:Core/Src/usbd_conf.c ****   * @param  ep_addr: Endpoint number
 547:Core/Src/usbd_conf.c ****   * @retval USBD status
 548:Core/Src/usbd_conf.c ****   */
 549:Core/Src/usbd_conf.c **** USBD_StatusTypeDef USBD_LL_ClearStallEP(USBD_HandleTypeDef *pdev, uint8_t ep_addr)
 550:Core/Src/usbd_conf.c **** {
 1198              		.loc 1 550 1 is_stmt 1 view -0
 1199              		.cfi_startproc
 1200              		@ args = 0, pretend = 0, frame = 0
 1201              		@ frame_needed = 0, uses_anonymous_args = 0
 1202              		.loc 1 550 1 is_stmt 0 view .LVU251
 1203 0000 10B5     		push	{r4, lr}
 1204              	.LCFI22:
 1205              		.cfi_def_cfa_offset 8
 1206              		.cfi_offset 4, -8
 1207              		.cfi_offset 14, -4
 551:Core/Src/usbd_conf.c ****   HAL_StatusTypeDef hal_status = HAL_OK;
 1208              		.loc 1 551 3 is_stmt 1 view .LVU252
 1209              	.LVL125:
 552:Core/Src/usbd_conf.c ****   USBD_StatusTypeDef usb_status = USBD_OK;
 1210              		.loc 1 552 3 view .LVU253
 553:Core/Src/usbd_conf.c **** 
 554:Core/Src/usbd_conf.c ****   hal_status = HAL_PCD_EP_ClrStall(pdev->pData, ep_addr);
 1211              		.loc 1 554 3 view .LVU254
 1212              		.loc 1 554 40 is_stmt 0 view .LVU255
 1213 0002 8823     		movs	r3, #136
 1214 0004 9B00     		lsls	r3, r3, #2
 1215 0006 C058     		ldr	r0, [r0, r3]
 1216              	.LVL126:
ARM GAS  /tmp/cc32IZtB.s 			page 32


 1217              		.loc 1 554 16 view .LVU256
 1218 0008 FFF7FEFF 		bl	HAL_PCD_EP_ClrStall
 1219              	.LVL127:
 555:Core/Src/usbd_conf.c **** 
 556:Core/Src/usbd_conf.c ****   switch (hal_status) {
 1220              		.loc 1 556 3 is_stmt 1 view .LVU257
 1221 000c 0228     		cmp	r0, #2
 1222 000e 04D0     		beq	.L65
 1223 0010 05D8     		bhi	.L66
 1224 0012 0028     		cmp	r0, #0
 1225 0014 00D0     		beq	.L64
 557:Core/Src/usbd_conf.c ****     case HAL_OK :
 558:Core/Src/usbd_conf.c ****       usb_status = USBD_OK;
 559:Core/Src/usbd_conf.c ****     break;
 560:Core/Src/usbd_conf.c ****     case HAL_ERROR :
 561:Core/Src/usbd_conf.c ****       usb_status = USBD_FAIL;
 1226              		.loc 1 561 18 is_stmt 0 view .LVU258
 1227 0016 0220     		movs	r0, #2
 1228              	.LVL128:
 1229              	.L64:
 562:Core/Src/usbd_conf.c ****     break;
 563:Core/Src/usbd_conf.c ****     case HAL_BUSY :
 564:Core/Src/usbd_conf.c ****       usb_status = USBD_BUSY;
 565:Core/Src/usbd_conf.c ****     break;
 566:Core/Src/usbd_conf.c ****     case HAL_TIMEOUT :
 567:Core/Src/usbd_conf.c ****       usb_status = USBD_FAIL;
 568:Core/Src/usbd_conf.c ****     break;
 569:Core/Src/usbd_conf.c ****     default :
 570:Core/Src/usbd_conf.c ****       usb_status = USBD_FAIL;
 571:Core/Src/usbd_conf.c ****     break;
 572:Core/Src/usbd_conf.c ****   }
 573:Core/Src/usbd_conf.c ****   return usb_status;
 1230              		.loc 1 573 3 is_stmt 1 view .LVU259
 574:Core/Src/usbd_conf.c **** }
 1231              		.loc 1 574 1 is_stmt 0 view .LVU260
 1232              		@ sp needed
 1233 0018 10BD     		pop	{r4, pc}
 1234              	.LVL129:
 1235              	.L65:
 564:Core/Src/usbd_conf.c ****     break;
 1236              		.loc 1 564 18 view .LVU261
 1237 001a 0120     		movs	r0, #1
 1238              	.LVL130:
 564:Core/Src/usbd_conf.c ****     break;
 1239              		.loc 1 564 18 view .LVU262
 1240 001c FCE7     		b	.L64
 1241              	.LVL131:
 1242              	.L66:
 567:Core/Src/usbd_conf.c ****     break;
 1243              		.loc 1 567 18 view .LVU263
 1244 001e 0220     		movs	r0, #2
 1245              	.LVL132:
 567:Core/Src/usbd_conf.c ****     break;
 1246              		.loc 1 567 18 view .LVU264
 1247 0020 FAE7     		b	.L64
 1248              		.cfi_endproc
 1249              	.LFE64:
ARM GAS  /tmp/cc32IZtB.s 			page 33


 1251              		.section	.text.USBD_LL_IsStallEP,"ax",%progbits
 1252              		.align	1
 1253              		.global	USBD_LL_IsStallEP
 1254              		.syntax unified
 1255              		.code	16
 1256              		.thumb_func
 1257              		.fpu softvfp
 1259              	USBD_LL_IsStallEP:
 1260              	.LVL133:
 1261              	.LFB65:
 575:Core/Src/usbd_conf.c **** 
 576:Core/Src/usbd_conf.c **** /**
 577:Core/Src/usbd_conf.c ****   * @brief  Returns Stall condition.
 578:Core/Src/usbd_conf.c ****   * @param  pdev: Device handle
 579:Core/Src/usbd_conf.c ****   * @param  ep_addr: Endpoint number
 580:Core/Src/usbd_conf.c ****   * @retval Stall (1: Yes, 0: No)
 581:Core/Src/usbd_conf.c ****   */
 582:Core/Src/usbd_conf.c **** uint8_t USBD_LL_IsStallEP(USBD_HandleTypeDef *pdev, uint8_t ep_addr)
 583:Core/Src/usbd_conf.c **** {
 1262              		.loc 1 583 1 is_stmt 1 view -0
 1263              		.cfi_startproc
 1264              		@ args = 0, pretend = 0, frame = 0
 1265              		@ frame_needed = 0, uses_anonymous_args = 0
 1266              		@ link register save eliminated.
 584:Core/Src/usbd_conf.c ****   PCD_HandleTypeDef *hpcd = (PCD_HandleTypeDef*) pdev->pData;
 1267              		.loc 1 584 3 view .LVU266
 1268              		.loc 1 584 22 is_stmt 0 view .LVU267
 1269 0000 8823     		movs	r3, #136
 1270 0002 9B00     		lsls	r3, r3, #2
 1271 0004 C358     		ldr	r3, [r0, r3]
 1272              	.LVL134:
 585:Core/Src/usbd_conf.c **** 
 586:Core/Src/usbd_conf.c ****   if((ep_addr & 0x80) == 0x80)
 1273              		.loc 1 586 3 is_stmt 1 view .LVU268
 1274              		.loc 1 586 23 is_stmt 0 view .LVU269
 1275 0006 4AB2     		sxtb	r2, r1
 1276              		.loc 1 586 5 view .LVU270
 1277 0008 002A     		cmp	r2, #0
 1278 000a 09DB     		blt	.L71
 587:Core/Src/usbd_conf.c ****   {
 588:Core/Src/usbd_conf.c ****     return hpcd->IN_ep[ep_addr & 0x7F].is_stall;
 589:Core/Src/usbd_conf.c ****   }
 590:Core/Src/usbd_conf.c ****   else
 591:Core/Src/usbd_conf.c ****   {
 592:Core/Src/usbd_conf.c ****     return hpcd->OUT_ep[ep_addr & 0x7F].is_stall;
 1279              		.loc 1 592 5 is_stmt 1 view .LVU271
 1280              		.loc 1 592 33 is_stmt 0 view .LVU272
 1281 000c 7F22     		movs	r2, #127
 1282 000e 0A40     		ands	r2, r1
 1283              		.loc 1 592 40 view .LVU273
 1284 0010 9100     		lsls	r1, r2, #2
 1285              	.LVL135:
 1286              		.loc 1 592 40 view .LVU274
 1287 0012 8918     		adds	r1, r1, r2
 1288 0014 C900     		lsls	r1, r1, #3
 1289 0016 5B18     		adds	r3, r3, r1
 1290              	.LVL136:
ARM GAS  /tmp/cc32IZtB.s 			page 34


 1291              		.loc 1 592 40 view .LVU275
 1292 0018 6B33     		adds	r3, r3, #107
 1293 001a FF33     		adds	r3, r3, #255
 1294 001c 1878     		ldrb	r0, [r3]
 1295              	.LVL137:
 1296              	.L70:
 593:Core/Src/usbd_conf.c ****   }
 594:Core/Src/usbd_conf.c **** }
 1297              		.loc 1 594 1 view .LVU276
 1298              		@ sp needed
 1299 001e 7047     		bx	lr
 1300              	.LVL138:
 1301              	.L71:
 588:Core/Src/usbd_conf.c ****   }
 1302              		.loc 1 588 5 is_stmt 1 view .LVU277
 588:Core/Src/usbd_conf.c ****   }
 1303              		.loc 1 588 32 is_stmt 0 view .LVU278
 1304 0020 7F22     		movs	r2, #127
 1305 0022 0A40     		ands	r2, r1
 588:Core/Src/usbd_conf.c ****   }
 1306              		.loc 1 588 39 view .LVU279
 1307 0024 0132     		adds	r2, r2, #1
 1308 0026 9100     		lsls	r1, r2, #2
 1309              	.LVL139:
 588:Core/Src/usbd_conf.c ****   }
 1310              		.loc 1 588 39 view .LVU280
 1311 0028 8918     		adds	r1, r1, r2
 1312 002a C900     		lsls	r1, r1, #3
 1313 002c 5B18     		adds	r3, r3, r1
 1314              	.LVL140:
 588:Core/Src/usbd_conf.c ****   }
 1315              		.loc 1 588 39 view .LVU281
 1316 002e 9878     		ldrb	r0, [r3, #2]
 1317              	.LVL141:
 588:Core/Src/usbd_conf.c ****   }
 1318              		.loc 1 588 39 view .LVU282
 1319 0030 F5E7     		b	.L70
 1320              		.cfi_endproc
 1321              	.LFE65:
 1323              		.section	.text.USBD_LL_SetUSBAddress,"ax",%progbits
 1324              		.align	1
 1325              		.global	USBD_LL_SetUSBAddress
 1326              		.syntax unified
 1327              		.code	16
 1328              		.thumb_func
 1329              		.fpu softvfp
 1331              	USBD_LL_SetUSBAddress:
 1332              	.LVL142:
 1333              	.LFB66:
 595:Core/Src/usbd_conf.c **** 
 596:Core/Src/usbd_conf.c **** /**
 597:Core/Src/usbd_conf.c ****   * @brief  Assigns a USB address to the device.
 598:Core/Src/usbd_conf.c ****   * @param  pdev: Device handle
 599:Core/Src/usbd_conf.c ****   * @param  dev_addr: Device address
 600:Core/Src/usbd_conf.c ****   * @retval USBD status
 601:Core/Src/usbd_conf.c ****   */
 602:Core/Src/usbd_conf.c **** USBD_StatusTypeDef USBD_LL_SetUSBAddress(USBD_HandleTypeDef *pdev, uint8_t dev_addr)
ARM GAS  /tmp/cc32IZtB.s 			page 35


 603:Core/Src/usbd_conf.c **** {
 1334              		.loc 1 603 1 is_stmt 1 view -0
 1335              		.cfi_startproc
 1336              		@ args = 0, pretend = 0, frame = 0
 1337              		@ frame_needed = 0, uses_anonymous_args = 0
 1338              		.loc 1 603 1 is_stmt 0 view .LVU284
 1339 0000 10B5     		push	{r4, lr}
 1340              	.LCFI23:
 1341              		.cfi_def_cfa_offset 8
 1342              		.cfi_offset 4, -8
 1343              		.cfi_offset 14, -4
 604:Core/Src/usbd_conf.c ****   HAL_StatusTypeDef hal_status = HAL_OK;
 1344              		.loc 1 604 3 is_stmt 1 view .LVU285
 1345              	.LVL143:
 605:Core/Src/usbd_conf.c ****   USBD_StatusTypeDef usb_status = USBD_OK;
 1346              		.loc 1 605 3 view .LVU286
 606:Core/Src/usbd_conf.c **** 
 607:Core/Src/usbd_conf.c ****   hal_status = HAL_PCD_SetAddress(pdev->pData, dev_addr);
 1347              		.loc 1 607 3 view .LVU287
 1348              		.loc 1 607 39 is_stmt 0 view .LVU288
 1349 0002 8823     		movs	r3, #136
 1350 0004 9B00     		lsls	r3, r3, #2
 1351 0006 C058     		ldr	r0, [r0, r3]
 1352              	.LVL144:
 1353              		.loc 1 607 16 view .LVU289
 1354 0008 FFF7FEFF 		bl	HAL_PCD_SetAddress
 1355              	.LVL145:
 608:Core/Src/usbd_conf.c **** 
 609:Core/Src/usbd_conf.c ****   switch (hal_status) {
 1356              		.loc 1 609 3 is_stmt 1 view .LVU290
 1357 000c 0228     		cmp	r0, #2
 1358 000e 04D0     		beq	.L74
 1359 0010 05D8     		bhi	.L75
 1360 0012 0028     		cmp	r0, #0
 1361 0014 00D0     		beq	.L73
 610:Core/Src/usbd_conf.c ****     case HAL_OK :
 611:Core/Src/usbd_conf.c ****       usb_status = USBD_OK;
 612:Core/Src/usbd_conf.c ****     break;
 613:Core/Src/usbd_conf.c ****     case HAL_ERROR :
 614:Core/Src/usbd_conf.c ****       usb_status = USBD_FAIL;
 1362              		.loc 1 614 18 is_stmt 0 view .LVU291
 1363 0016 0220     		movs	r0, #2
 1364              	.LVL146:
 1365              	.L73:
 615:Core/Src/usbd_conf.c ****     break;
 616:Core/Src/usbd_conf.c ****     case HAL_BUSY :
 617:Core/Src/usbd_conf.c ****       usb_status = USBD_BUSY;
 618:Core/Src/usbd_conf.c ****     break;
 619:Core/Src/usbd_conf.c ****     case HAL_TIMEOUT :
 620:Core/Src/usbd_conf.c ****       usb_status = USBD_FAIL;
 621:Core/Src/usbd_conf.c ****     break;
 622:Core/Src/usbd_conf.c ****     default :
 623:Core/Src/usbd_conf.c ****       usb_status = USBD_FAIL;
 624:Core/Src/usbd_conf.c ****     break;
 625:Core/Src/usbd_conf.c ****   }
 626:Core/Src/usbd_conf.c ****   return usb_status;
 1366              		.loc 1 626 3 is_stmt 1 view .LVU292
ARM GAS  /tmp/cc32IZtB.s 			page 36


 627:Core/Src/usbd_conf.c **** }
 1367              		.loc 1 627 1 is_stmt 0 view .LVU293
 1368              		@ sp needed
 1369 0018 10BD     		pop	{r4, pc}
 1370              	.LVL147:
 1371              	.L74:
 617:Core/Src/usbd_conf.c ****     break;
 1372              		.loc 1 617 18 view .LVU294
 1373 001a 0120     		movs	r0, #1
 1374              	.LVL148:
 617:Core/Src/usbd_conf.c ****     break;
 1375              		.loc 1 617 18 view .LVU295
 1376 001c FCE7     		b	.L73
 1377              	.LVL149:
 1378              	.L75:
 620:Core/Src/usbd_conf.c ****     break;
 1379              		.loc 1 620 18 view .LVU296
 1380 001e 0220     		movs	r0, #2
 1381              	.LVL150:
 620:Core/Src/usbd_conf.c ****     break;
 1382              		.loc 1 620 18 view .LVU297
 1383 0020 FAE7     		b	.L73
 1384              		.cfi_endproc
 1385              	.LFE66:
 1387              		.section	.text.USBD_LL_Transmit,"ax",%progbits
 1388              		.align	1
 1389              		.global	USBD_LL_Transmit
 1390              		.syntax unified
 1391              		.code	16
 1392              		.thumb_func
 1393              		.fpu softvfp
 1395              	USBD_LL_Transmit:
 1396              	.LVL151:
 1397              	.LFB67:
 628:Core/Src/usbd_conf.c **** 
 629:Core/Src/usbd_conf.c **** /**
 630:Core/Src/usbd_conf.c ****   * @brief  Transmits data over an endpoint.
 631:Core/Src/usbd_conf.c ****   * @param  pdev: Device handle
 632:Core/Src/usbd_conf.c ****   * @param  ep_addr: Endpoint number
 633:Core/Src/usbd_conf.c ****   * @param  pbuf: Pointer to data to be sent
 634:Core/Src/usbd_conf.c ****   * @param  size: Data size
 635:Core/Src/usbd_conf.c ****   * @retval USBD status
 636:Core/Src/usbd_conf.c ****   */
 637:Core/Src/usbd_conf.c **** USBD_StatusTypeDef USBD_LL_Transmit(USBD_HandleTypeDef *pdev, uint8_t ep_addr, uint8_t *pbuf, uint1
 638:Core/Src/usbd_conf.c **** {
 1398              		.loc 1 638 1 is_stmt 1 view -0
 1399              		.cfi_startproc
 1400              		@ args = 0, pretend = 0, frame = 0
 1401              		@ frame_needed = 0, uses_anonymous_args = 0
 1402              		.loc 1 638 1 is_stmt 0 view .LVU299
 1403 0000 10B5     		push	{r4, lr}
 1404              	.LCFI24:
 1405              		.cfi_def_cfa_offset 8
 1406              		.cfi_offset 4, -8
 1407              		.cfi_offset 14, -4
 639:Core/Src/usbd_conf.c ****   HAL_StatusTypeDef hal_status = HAL_OK;
 1408              		.loc 1 639 3 is_stmt 1 view .LVU300
ARM GAS  /tmp/cc32IZtB.s 			page 37


 1409              	.LVL152:
 640:Core/Src/usbd_conf.c ****   USBD_StatusTypeDef usb_status = USBD_OK;
 1410              		.loc 1 640 3 view .LVU301
 641:Core/Src/usbd_conf.c **** 
 642:Core/Src/usbd_conf.c ****   hal_status = HAL_PCD_EP_Transmit(pdev->pData, ep_addr, pbuf, size);
 1411              		.loc 1 642 3 view .LVU302
 1412              		.loc 1 642 40 is_stmt 0 view .LVU303
 1413 0002 8824     		movs	r4, #136
 1414 0004 A400     		lsls	r4, r4, #2
 1415 0006 0059     		ldr	r0, [r0, r4]
 1416              	.LVL153:
 1417              		.loc 1 642 16 view .LVU304
 1418 0008 FFF7FEFF 		bl	HAL_PCD_EP_Transmit
 1419              	.LVL154:
 643:Core/Src/usbd_conf.c **** 
 644:Core/Src/usbd_conf.c ****   switch (hal_status) {
 1420              		.loc 1 644 3 is_stmt 1 view .LVU305
 1421 000c 0228     		cmp	r0, #2
 1422 000e 04D0     		beq	.L79
 1423 0010 05D8     		bhi	.L80
 1424 0012 0028     		cmp	r0, #0
 1425 0014 00D0     		beq	.L78
 645:Core/Src/usbd_conf.c ****     case HAL_OK :
 646:Core/Src/usbd_conf.c ****       usb_status = USBD_OK;
 647:Core/Src/usbd_conf.c ****     break;
 648:Core/Src/usbd_conf.c ****     case HAL_ERROR :
 649:Core/Src/usbd_conf.c ****       usb_status = USBD_FAIL;
 1426              		.loc 1 649 18 is_stmt 0 view .LVU306
 1427 0016 0220     		movs	r0, #2
 1428              	.LVL155:
 1429              	.L78:
 650:Core/Src/usbd_conf.c ****     break;
 651:Core/Src/usbd_conf.c ****     case HAL_BUSY :
 652:Core/Src/usbd_conf.c ****       usb_status = USBD_BUSY;
 653:Core/Src/usbd_conf.c ****     break;
 654:Core/Src/usbd_conf.c ****     case HAL_TIMEOUT :
 655:Core/Src/usbd_conf.c ****       usb_status = USBD_FAIL;
 656:Core/Src/usbd_conf.c ****     break;
 657:Core/Src/usbd_conf.c ****     default :
 658:Core/Src/usbd_conf.c ****       usb_status = USBD_FAIL;
 659:Core/Src/usbd_conf.c ****     break;
 660:Core/Src/usbd_conf.c ****   }
 661:Core/Src/usbd_conf.c ****   return usb_status;
 1430              		.loc 1 661 3 is_stmt 1 view .LVU307
 662:Core/Src/usbd_conf.c **** }
 1431              		.loc 1 662 1 is_stmt 0 view .LVU308
 1432              		@ sp needed
 1433 0018 10BD     		pop	{r4, pc}
 1434              	.LVL156:
 1435              	.L79:
 652:Core/Src/usbd_conf.c ****     break;
 1436              		.loc 1 652 18 view .LVU309
 1437 001a 0120     		movs	r0, #1
 1438              	.LVL157:
 652:Core/Src/usbd_conf.c ****     break;
 1439              		.loc 1 652 18 view .LVU310
 1440 001c FCE7     		b	.L78
ARM GAS  /tmp/cc32IZtB.s 			page 38


 1441              	.LVL158:
 1442              	.L80:
 655:Core/Src/usbd_conf.c ****     break;
 1443              		.loc 1 655 18 view .LVU311
 1444 001e 0220     		movs	r0, #2
 1445              	.LVL159:
 655:Core/Src/usbd_conf.c ****     break;
 1446              		.loc 1 655 18 view .LVU312
 1447 0020 FAE7     		b	.L78
 1448              		.cfi_endproc
 1449              	.LFE67:
 1451              		.section	.text.USBD_LL_PrepareReceive,"ax",%progbits
 1452              		.align	1
 1453              		.global	USBD_LL_PrepareReceive
 1454              		.syntax unified
 1455              		.code	16
 1456              		.thumb_func
 1457              		.fpu softvfp
 1459              	USBD_LL_PrepareReceive:
 1460              	.LVL160:
 1461              	.LFB68:
 663:Core/Src/usbd_conf.c **** 
 664:Core/Src/usbd_conf.c **** /**
 665:Core/Src/usbd_conf.c ****   * @brief  Prepares an endpoint for reception.
 666:Core/Src/usbd_conf.c ****   * @param  pdev: Device handle
 667:Core/Src/usbd_conf.c ****   * @param  ep_addr: Endpoint number
 668:Core/Src/usbd_conf.c ****   * @param  pbuf: Pointer to data to be received
 669:Core/Src/usbd_conf.c ****   * @param  size: Data size
 670:Core/Src/usbd_conf.c ****   * @retval USBD status
 671:Core/Src/usbd_conf.c ****   */
 672:Core/Src/usbd_conf.c **** USBD_StatusTypeDef USBD_LL_PrepareReceive(USBD_HandleTypeDef *pdev, uint8_t ep_addr, uint8_t *pbuf,
 673:Core/Src/usbd_conf.c **** {
 1462              		.loc 1 673 1 is_stmt 1 view -0
 1463              		.cfi_startproc
 1464              		@ args = 0, pretend = 0, frame = 0
 1465              		@ frame_needed = 0, uses_anonymous_args = 0
 1466              		.loc 1 673 1 is_stmt 0 view .LVU314
 1467 0000 10B5     		push	{r4, lr}
 1468              	.LCFI25:
 1469              		.cfi_def_cfa_offset 8
 1470              		.cfi_offset 4, -8
 1471              		.cfi_offset 14, -4
 674:Core/Src/usbd_conf.c ****   HAL_StatusTypeDef hal_status = HAL_OK;
 1472              		.loc 1 674 3 is_stmt 1 view .LVU315
 1473              	.LVL161:
 675:Core/Src/usbd_conf.c ****   USBD_StatusTypeDef usb_status = USBD_OK;
 1474              		.loc 1 675 3 view .LVU316
 676:Core/Src/usbd_conf.c **** 
 677:Core/Src/usbd_conf.c ****   hal_status = HAL_PCD_EP_Receive(pdev->pData, ep_addr, pbuf, size);
 1475              		.loc 1 677 3 view .LVU317
 1476              		.loc 1 677 39 is_stmt 0 view .LVU318
 1477 0002 8824     		movs	r4, #136
 1478 0004 A400     		lsls	r4, r4, #2
 1479 0006 0059     		ldr	r0, [r0, r4]
 1480              	.LVL162:
 1481              		.loc 1 677 16 view .LVU319
 1482 0008 FFF7FEFF 		bl	HAL_PCD_EP_Receive
ARM GAS  /tmp/cc32IZtB.s 			page 39


 1483              	.LVL163:
 678:Core/Src/usbd_conf.c **** 
 679:Core/Src/usbd_conf.c ****   switch (hal_status) {
 1484              		.loc 1 679 3 is_stmt 1 view .LVU320
 1485 000c 0228     		cmp	r0, #2
 1486 000e 04D0     		beq	.L84
 1487 0010 05D8     		bhi	.L85
 1488 0012 0028     		cmp	r0, #0
 1489 0014 00D0     		beq	.L83
 680:Core/Src/usbd_conf.c ****     case HAL_OK :
 681:Core/Src/usbd_conf.c ****       usb_status = USBD_OK;
 682:Core/Src/usbd_conf.c ****     break;
 683:Core/Src/usbd_conf.c ****     case HAL_ERROR :
 684:Core/Src/usbd_conf.c ****       usb_status = USBD_FAIL;
 1490              		.loc 1 684 18 is_stmt 0 view .LVU321
 1491 0016 0220     		movs	r0, #2
 1492              	.LVL164:
 1493              	.L83:
 685:Core/Src/usbd_conf.c ****     break;
 686:Core/Src/usbd_conf.c ****     case HAL_BUSY :
 687:Core/Src/usbd_conf.c ****       usb_status = USBD_BUSY;
 688:Core/Src/usbd_conf.c ****     break;
 689:Core/Src/usbd_conf.c ****     case HAL_TIMEOUT :
 690:Core/Src/usbd_conf.c ****       usb_status = USBD_FAIL;
 691:Core/Src/usbd_conf.c ****     break;
 692:Core/Src/usbd_conf.c ****     default :
 693:Core/Src/usbd_conf.c ****       usb_status = USBD_FAIL;
 694:Core/Src/usbd_conf.c ****     break;
 695:Core/Src/usbd_conf.c ****   }
 696:Core/Src/usbd_conf.c ****   return usb_status;
 1494              		.loc 1 696 3 is_stmt 1 view .LVU322
 697:Core/Src/usbd_conf.c **** }
 1495              		.loc 1 697 1 is_stmt 0 view .LVU323
 1496              		@ sp needed
 1497 0018 10BD     		pop	{r4, pc}
 1498              	.LVL165:
 1499              	.L84:
 687:Core/Src/usbd_conf.c ****     break;
 1500              		.loc 1 687 18 view .LVU324
 1501 001a 0120     		movs	r0, #1
 1502              	.LVL166:
 687:Core/Src/usbd_conf.c ****     break;
 1503              		.loc 1 687 18 view .LVU325
 1504 001c FCE7     		b	.L83
 1505              	.LVL167:
 1506              	.L85:
 690:Core/Src/usbd_conf.c ****     break;
 1507              		.loc 1 690 18 view .LVU326
 1508 001e 0220     		movs	r0, #2
 1509              	.LVL168:
 690:Core/Src/usbd_conf.c ****     break;
 1510              		.loc 1 690 18 view .LVU327
 1511 0020 FAE7     		b	.L83
 1512              		.cfi_endproc
 1513              	.LFE68:
 1515              		.section	.text.USBD_LL_GetRxDataSize,"ax",%progbits
 1516              		.align	1
ARM GAS  /tmp/cc32IZtB.s 			page 40


 1517              		.global	USBD_LL_GetRxDataSize
 1518              		.syntax unified
 1519              		.code	16
 1520              		.thumb_func
 1521              		.fpu softvfp
 1523              	USBD_LL_GetRxDataSize:
 1524              	.LVL169:
 1525              	.LFB69:
 698:Core/Src/usbd_conf.c **** 
 699:Core/Src/usbd_conf.c **** /**
 700:Core/Src/usbd_conf.c ****   * @brief  Returns the last transfered packet size.
 701:Core/Src/usbd_conf.c ****   * @param  pdev: Device handle
 702:Core/Src/usbd_conf.c ****   * @param  ep_addr: Endpoint number
 703:Core/Src/usbd_conf.c ****   * @retval Recived Data Size
 704:Core/Src/usbd_conf.c ****   */
 705:Core/Src/usbd_conf.c **** uint32_t USBD_LL_GetRxDataSize(USBD_HandleTypeDef *pdev, uint8_t ep_addr)
 706:Core/Src/usbd_conf.c **** {
 1526              		.loc 1 706 1 is_stmt 1 view -0
 1527              		.cfi_startproc
 1528              		@ args = 0, pretend = 0, frame = 0
 1529              		@ frame_needed = 0, uses_anonymous_args = 0
 1530              		.loc 1 706 1 is_stmt 0 view .LVU329
 1531 0000 10B5     		push	{r4, lr}
 1532              	.LCFI26:
 1533              		.cfi_def_cfa_offset 8
 1534              		.cfi_offset 4, -8
 1535              		.cfi_offset 14, -4
 707:Core/Src/usbd_conf.c ****   return HAL_PCD_EP_GetRxCount((PCD_HandleTypeDef*) pdev->pData, ep_addr);
 1536              		.loc 1 707 3 is_stmt 1 view .LVU330
 1537              		.loc 1 707 57 is_stmt 0 view .LVU331
 1538 0002 8823     		movs	r3, #136
 1539 0004 9B00     		lsls	r3, r3, #2
 1540 0006 C058     		ldr	r0, [r0, r3]
 1541              	.LVL170:
 1542              		.loc 1 707 10 view .LVU332
 1543 0008 FFF7FEFF 		bl	HAL_PCD_EP_GetRxCount
 1544              	.LVL171:
 708:Core/Src/usbd_conf.c **** }
 1545              		.loc 1 708 1 view .LVU333
 1546              		@ sp needed
 1547 000c 10BD     		pop	{r4, pc}
 1548              		.cfi_endproc
 1549              	.LFE69:
 1551              		.section	.text.USBD_LL_Delay,"ax",%progbits
 1552              		.align	1
 1553              		.global	USBD_LL_Delay
 1554              		.syntax unified
 1555              		.code	16
 1556              		.thumb_func
 1557              		.fpu softvfp
 1559              	USBD_LL_Delay:
 1560              	.LVL172:
 1561              	.LFB70:
 709:Core/Src/usbd_conf.c **** 
 710:Core/Src/usbd_conf.c **** /**
 711:Core/Src/usbd_conf.c ****   * @brief  Delays routine for the USB device library.
 712:Core/Src/usbd_conf.c ****   * @param  Delay: Delay in ms
ARM GAS  /tmp/cc32IZtB.s 			page 41


 713:Core/Src/usbd_conf.c ****   * @retval None
 714:Core/Src/usbd_conf.c ****   */
 715:Core/Src/usbd_conf.c **** void USBD_LL_Delay(uint32_t Delay)
 716:Core/Src/usbd_conf.c **** {
 1562              		.loc 1 716 1 is_stmt 1 view -0
 1563              		.cfi_startproc
 1564              		@ args = 0, pretend = 0, frame = 0
 1565              		@ frame_needed = 0, uses_anonymous_args = 0
 1566              		.loc 1 716 1 is_stmt 0 view .LVU335
 1567 0000 10B5     		push	{r4, lr}
 1568              	.LCFI27:
 1569              		.cfi_def_cfa_offset 8
 1570              		.cfi_offset 4, -8
 1571              		.cfi_offset 14, -4
 717:Core/Src/usbd_conf.c ****   HAL_Delay(Delay);
 1572              		.loc 1 717 3 is_stmt 1 view .LVU336
 1573 0002 FFF7FEFF 		bl	HAL_Delay
 1574              	.LVL173:
 718:Core/Src/usbd_conf.c **** }
 1575              		.loc 1 718 1 is_stmt 0 view .LVU337
 1576              		@ sp needed
 1577 0006 10BD     		pop	{r4, pc}
 1578              		.cfi_endproc
 1579              	.LFE70:
 1581              		.section	.text.USBD_static_free,"ax",%progbits
 1582              		.align	1
 1583              		.global	USBD_static_free
 1584              		.syntax unified
 1585              		.code	16
 1586              		.thumb_func
 1587              		.fpu softvfp
 1589              	USBD_static_free:
 1590              	.LVL174:
 1591              	.LFB71:
 719:Core/Src/usbd_conf.c **** 
 720:Core/Src/usbd_conf.c **** /**
 721:Core/Src/usbd_conf.c ****   * @brief  Static single allocation.
 722:Core/Src/usbd_conf.c ****   * @param  size: Size of allocated memory
 723:Core/Src/usbd_conf.c ****   * @retval None
 724:Core/Src/usbd_conf.c ****   */
 725:Core/Src/usbd_conf.c **** //void *USBD_static_malloc(uint32_t size)
 726:Core/Src/usbd_conf.c **** //{
 727:Core/Src/usbd_conf.c **** //  static uint32_t mem[(sizeof(USBD_CDC_HandleTypeDef)/4)+1];/* On 32-bit boundary */
 728:Core/Src/usbd_conf.c **** //  return mem;
 729:Core/Src/usbd_conf.c **** //}
 730:Core/Src/usbd_conf.c **** 
 731:Core/Src/usbd_conf.c **** /**
 732:Core/Src/usbd_conf.c ****   * @brief  Dummy memory free
 733:Core/Src/usbd_conf.c ****   * @param  p: Pointer to allocated  memory address
 734:Core/Src/usbd_conf.c ****   * @retval None
 735:Core/Src/usbd_conf.c ****   */
 736:Core/Src/usbd_conf.c **** void USBD_static_free(void *p)
 737:Core/Src/usbd_conf.c **** {
 1592              		.loc 1 737 1 is_stmt 1 view -0
 1593              		.cfi_startproc
 1594              		@ args = 0, pretend = 0, frame = 0
 1595              		@ frame_needed = 0, uses_anonymous_args = 0
ARM GAS  /tmp/cc32IZtB.s 			page 42


 1596              		@ link register save eliminated.
 738:Core/Src/usbd_conf.c **** 
 739:Core/Src/usbd_conf.c **** }
 1597              		.loc 1 739 1 view .LVU339
 1598              		@ sp needed
 1599 0000 7047     		bx	lr
 1600              		.cfi_endproc
 1601              	.LFE71:
 1603              		.section	.text.HAL_PCDEx_SetConnectionState,"ax",%progbits
 1604              		.align	1
 1605              		.global	HAL_PCDEx_SetConnectionState
 1606              		.syntax unified
 1607              		.code	16
 1608              		.thumb_func
 1609              		.fpu softvfp
 1611              	HAL_PCDEx_SetConnectionState:
 1612              	.LVL175:
 1613              	.LFB72:
 740:Core/Src/usbd_conf.c **** 
 741:Core/Src/usbd_conf.c **** /* USER CODE BEGIN 5 */
 742:Core/Src/usbd_conf.c **** /**
 743:Core/Src/usbd_conf.c ****   * @brief  Configures system clock after wake-up from USB Resume CallBack:
 744:Core/Src/usbd_conf.c ****   *         enable HSI, PLL and select PLL as system clock source.
 745:Core/Src/usbd_conf.c ****   * @retval None
 746:Core/Src/usbd_conf.c ****   */
 747:Core/Src/usbd_conf.c **** //static void SystemClockConfig_Resume(void)
 748:Core/Src/usbd_conf.c **** //{
 749:Core/Src/usbd_conf.c **** //  SystemClock_Config();
 750:Core/Src/usbd_conf.c **** //}
 751:Core/Src/usbd_conf.c **** /* USER CODE END 5 */
 752:Core/Src/usbd_conf.c **** 
 753:Core/Src/usbd_conf.c **** /**
 754:Core/Src/usbd_conf.c ****   * @brief Software device connection
 755:Core/Src/usbd_conf.c ****   * @param hpcd: PCD handle
 756:Core/Src/usbd_conf.c ****   * @param state: Connection state (0: disconnected / 1: connected)
 757:Core/Src/usbd_conf.c ****   * @retval None
 758:Core/Src/usbd_conf.c ****   */
 759:Core/Src/usbd_conf.c **** void HAL_PCDEx_SetConnectionState(PCD_HandleTypeDef *hpcd, uint8_t state)
 760:Core/Src/usbd_conf.c **** {
 1614              		.loc 1 760 1 view -0
 1615              		.cfi_startproc
 1616              		@ args = 0, pretend = 0, frame = 0
 1617              		@ frame_needed = 0, uses_anonymous_args = 0
 1618              		@ link register save eliminated.
 761:Core/Src/usbd_conf.c ****   /* USER CODE BEGIN 6 */
 762:Core/Src/usbd_conf.c ****   if (state == 1)
 1619              		.loc 1 762 3 view .LVU341
 763:Core/Src/usbd_conf.c ****   {
 764:Core/Src/usbd_conf.c ****     /* Configure Low connection state. */
 765:Core/Src/usbd_conf.c **** 
 766:Core/Src/usbd_conf.c ****   }
 767:Core/Src/usbd_conf.c ****   else
 768:Core/Src/usbd_conf.c ****   {
 769:Core/Src/usbd_conf.c ****     /* Configure High connection state */
 770:Core/Src/usbd_conf.c **** 
 771:Core/Src/usbd_conf.c ****   }
 1620              		.loc 1 771 3 view .LVU342
ARM GAS  /tmp/cc32IZtB.s 			page 43


 772:Core/Src/usbd_conf.c ****   /* USER CODE END 6 */
 773:Core/Src/usbd_conf.c **** }
 1621              		.loc 1 773 1 is_stmt 0 view .LVU343
 1622              		@ sp needed
 1623 0000 7047     		bx	lr
 1624              		.cfi_endproc
 1625              	.LFE72:
 1627              		.comm	hpcd_USB_FS,756,4
 1628              		.text
 1629              	.Letext0:
 1630              		.file 2 "/usr/lib/gcc/arm-none-eabi/9.2.1/include/stdint.h"
 1631              		.file 3 "Drivers/CMSIS/Include/core_cm0.h"
 1632              		.file 4 "Drivers/CMSIS/Device/ST/STM32F0xx/Include/system_stm32f0xx.h"
 1633              		.file 5 "Drivers/CMSIS/Device/ST/STM32F0xx/Include/stm32f042x6.h"
 1634              		.file 6 "Drivers/CMSIS/Device/ST/STM32F0xx/Include/stm32f0xx.h"
 1635              		.file 7 "Drivers/STM32F0xx_HAL_Driver/Inc/stm32f0xx_hal_def.h"
 1636              		.file 8 "Drivers/STM32F0xx_HAL_Driver/Inc/stm32f0xx_ll_usb.h"
 1637              		.file 9 "Drivers/STM32F0xx_HAL_Driver/Inc/stm32f0xx_hal_pcd.h"
 1638              		.file 10 "Drivers/STM32F0xx_HAL_Driver/Inc/stm32f0xx_hal.h"
 1639              		.file 11 "/usr/lib/gcc/arm-none-eabi/9.2.1/include/stddef.h"
 1640              		.file 12 "/usr/include/newlib/sys/_types.h"
 1641              		.file 13 "/usr/include/newlib/sys/reent.h"
 1642              		.file 14 "/usr/include/newlib/sys/lock.h"
 1643              		.file 15 "/usr/include/newlib/stdlib.h"
 1644              		.file 16 "Middlewares/ST/STM32_USB_Device_Library/Core/Inc/usbd_def.h"
 1645              		.file 17 "Drivers/STM32F0xx_HAL_Driver/Inc/stm32f0xx_hal_pcd_ex.h"
 1646              		.file 18 "Middlewares/ST/STM32_USB_Device_Library/Core/Inc/usbd_core.h"
 1647              		.file 19 "Drivers/STM32F0xx_HAL_Driver/Inc/stm32f0xx_hal_cortex.h"
ARM GAS  /tmp/cc32IZtB.s 			page 44

