ARM GAS  /tmp/ccUhKUw1.s 			page 1


   1              		.cpu cortex-m0
   2              		.eabi_attribute 20, 1
   3              		.eabi_attribute 21, 1
   4              		.eabi_attribute 23, 3
   5              		.eabi_attribute 24, 1
   6              		.eabi_attribute 25, 1
   7              		.eabi_attribute 26, 1
   8              		.eabi_attribute 30, 1
   9              		.eabi_attribute 34, 0
  10              		.eabi_attribute 18, 4
  11              		.file	"usbd_conf.c"
  12              		.text
  13              	.Ltext0:
  14              		.cfi_sections	.debug_frame
  15              		.section	.text.USBD_Get_USB_Status,"ax",%progbits
  16              		.align	1
  17              		.arch armv6s-m
  18              		.syntax unified
  19              		.code	16
  20              		.thumb_func
  21              		.fpu softvfp
  23              	USBD_Get_USB_Status:
  24              	.LVL0:
  25              	.LFB74:
  26              		.file 1 "USB_DEVICE/Target/usbd_conf.c"
   1:USB_DEVICE/Target/usbd_conf.c **** /* USER CODE BEGIN Header */
   2:USB_DEVICE/Target/usbd_conf.c **** /**
   3:USB_DEVICE/Target/usbd_conf.c ****   ******************************************************************************
   4:USB_DEVICE/Target/usbd_conf.c ****   * @file           : Target/usbd_conf.c
   5:USB_DEVICE/Target/usbd_conf.c ****   * @version        : v2.0_Cube
   6:USB_DEVICE/Target/usbd_conf.c ****   * @brief          : This file implements the board support package for the USB device library
   7:USB_DEVICE/Target/usbd_conf.c ****   ******************************************************************************
   8:USB_DEVICE/Target/usbd_conf.c ****   * @attention
   9:USB_DEVICE/Target/usbd_conf.c ****   *
  10:USB_DEVICE/Target/usbd_conf.c ****   * <h2><center>&copy; Copyright (c) 2021 STMicroelectronics.
  11:USB_DEVICE/Target/usbd_conf.c ****   * All rights reserved.</center></h2>
  12:USB_DEVICE/Target/usbd_conf.c ****   *
  13:USB_DEVICE/Target/usbd_conf.c ****   * This software component is licensed by ST under Ultimate Liberty license
  14:USB_DEVICE/Target/usbd_conf.c ****   * SLA0044, the "License"; You may not use this file except in compliance with
  15:USB_DEVICE/Target/usbd_conf.c ****   * the License. You may obtain a copy of the License at:
  16:USB_DEVICE/Target/usbd_conf.c ****   *                             www.st.com/SLA0044
  17:USB_DEVICE/Target/usbd_conf.c ****   *
  18:USB_DEVICE/Target/usbd_conf.c ****   ******************************************************************************
  19:USB_DEVICE/Target/usbd_conf.c ****   */
  20:USB_DEVICE/Target/usbd_conf.c **** /* USER CODE END Header */
  21:USB_DEVICE/Target/usbd_conf.c **** 
  22:USB_DEVICE/Target/usbd_conf.c **** /* Includes ------------------------------------------------------------------*/
  23:USB_DEVICE/Target/usbd_conf.c **** #include "stm32f0xx.h"
  24:USB_DEVICE/Target/usbd_conf.c **** #include "stm32f0xx_hal.h"
  25:USB_DEVICE/Target/usbd_conf.c **** #include "usbd_def.h"
  26:USB_DEVICE/Target/usbd_conf.c **** #include "usbd_core.h"
  27:USB_DEVICE/Target/usbd_conf.c **** #include "usbd_hid.h"
  28:USB_DEVICE/Target/usbd_conf.c **** 
  29:USB_DEVICE/Target/usbd_conf.c **** /* USER CODE BEGIN Includes */
  30:USB_DEVICE/Target/usbd_conf.c **** 
  31:USB_DEVICE/Target/usbd_conf.c **** /* USER CODE END Includes */
  32:USB_DEVICE/Target/usbd_conf.c **** 
ARM GAS  /tmp/ccUhKUw1.s 			page 2


  33:USB_DEVICE/Target/usbd_conf.c **** /* Private typedef -----------------------------------------------------------*/
  34:USB_DEVICE/Target/usbd_conf.c **** /* Private define ------------------------------------------------------------*/
  35:USB_DEVICE/Target/usbd_conf.c **** /* Private macro -------------------------------------------------------------*/
  36:USB_DEVICE/Target/usbd_conf.c **** 
  37:USB_DEVICE/Target/usbd_conf.c **** /* USER CODE BEGIN PV */
  38:USB_DEVICE/Target/usbd_conf.c **** /* Private variables ---------------------------------------------------------*/
  39:USB_DEVICE/Target/usbd_conf.c **** 
  40:USB_DEVICE/Target/usbd_conf.c **** /* USER CODE END PV */
  41:USB_DEVICE/Target/usbd_conf.c **** 
  42:USB_DEVICE/Target/usbd_conf.c **** PCD_HandleTypeDef hpcd_USB_FS;
  43:USB_DEVICE/Target/usbd_conf.c **** void Error_Handler(void);
  44:USB_DEVICE/Target/usbd_conf.c **** 
  45:USB_DEVICE/Target/usbd_conf.c **** /* USER CODE BEGIN 0 */
  46:USB_DEVICE/Target/usbd_conf.c **** 
  47:USB_DEVICE/Target/usbd_conf.c **** /* USER CODE END 0 */
  48:USB_DEVICE/Target/usbd_conf.c **** 
  49:USB_DEVICE/Target/usbd_conf.c **** /* USER CODE BEGIN PFP */
  50:USB_DEVICE/Target/usbd_conf.c **** /* Private function prototypes -----------------------------------------------*/
  51:USB_DEVICE/Target/usbd_conf.c **** 
  52:USB_DEVICE/Target/usbd_conf.c **** /* USER CODE END PFP */
  53:USB_DEVICE/Target/usbd_conf.c **** 
  54:USB_DEVICE/Target/usbd_conf.c **** /* Private functions ---------------------------------------------------------*/
  55:USB_DEVICE/Target/usbd_conf.c **** static USBD_StatusTypeDef USBD_Get_USB_Status(HAL_StatusTypeDef hal_status);
  56:USB_DEVICE/Target/usbd_conf.c **** /* USER CODE BEGIN 1 */
  57:USB_DEVICE/Target/usbd_conf.c **** static void SystemClockConfig_Resume(void);
  58:USB_DEVICE/Target/usbd_conf.c **** /* USER CODE END 1 */
  59:USB_DEVICE/Target/usbd_conf.c **** extern void SystemClock_Config(void);
  60:USB_DEVICE/Target/usbd_conf.c **** 
  61:USB_DEVICE/Target/usbd_conf.c **** /*******************************************************************************
  62:USB_DEVICE/Target/usbd_conf.c ****                        LL Driver Callbacks (PCD -> USB Device Library)
  63:USB_DEVICE/Target/usbd_conf.c **** *******************************************************************************/
  64:USB_DEVICE/Target/usbd_conf.c **** /* MSP Init */
  65:USB_DEVICE/Target/usbd_conf.c **** 
  66:USB_DEVICE/Target/usbd_conf.c **** void HAL_PCD_MspInit(PCD_HandleTypeDef* pcdHandle)
  67:USB_DEVICE/Target/usbd_conf.c **** {
  68:USB_DEVICE/Target/usbd_conf.c ****   if(pcdHandle->Instance==USB)
  69:USB_DEVICE/Target/usbd_conf.c ****   {
  70:USB_DEVICE/Target/usbd_conf.c ****   /* USER CODE BEGIN USB_MspInit 0 */
  71:USB_DEVICE/Target/usbd_conf.c **** 
  72:USB_DEVICE/Target/usbd_conf.c ****   /* USER CODE END USB_MspInit 0 */
  73:USB_DEVICE/Target/usbd_conf.c ****     /* Peripheral clock enable */
  74:USB_DEVICE/Target/usbd_conf.c ****     __HAL_RCC_USB_CLK_ENABLE();
  75:USB_DEVICE/Target/usbd_conf.c **** 
  76:USB_DEVICE/Target/usbd_conf.c ****     /* Peripheral interrupt init */
  77:USB_DEVICE/Target/usbd_conf.c ****     HAL_NVIC_SetPriority(USB_IRQn, 0, 0);
  78:USB_DEVICE/Target/usbd_conf.c ****     HAL_NVIC_EnableIRQ(USB_IRQn);
  79:USB_DEVICE/Target/usbd_conf.c ****   /* USER CODE BEGIN USB_MspInit 1 */
  80:USB_DEVICE/Target/usbd_conf.c **** 
  81:USB_DEVICE/Target/usbd_conf.c ****   /* USER CODE END USB_MspInit 1 */
  82:USB_DEVICE/Target/usbd_conf.c ****   }
  83:USB_DEVICE/Target/usbd_conf.c **** }
  84:USB_DEVICE/Target/usbd_conf.c **** 
  85:USB_DEVICE/Target/usbd_conf.c **** void HAL_PCD_MspDeInit(PCD_HandleTypeDef* pcdHandle)
  86:USB_DEVICE/Target/usbd_conf.c **** {
  87:USB_DEVICE/Target/usbd_conf.c ****   if(pcdHandle->Instance==USB)
  88:USB_DEVICE/Target/usbd_conf.c ****   {
  89:USB_DEVICE/Target/usbd_conf.c ****   /* USER CODE BEGIN USB_MspDeInit 0 */
ARM GAS  /tmp/ccUhKUw1.s 			page 3


  90:USB_DEVICE/Target/usbd_conf.c **** 
  91:USB_DEVICE/Target/usbd_conf.c ****   /* USER CODE END USB_MspDeInit 0 */
  92:USB_DEVICE/Target/usbd_conf.c ****     /* Peripheral clock disable */
  93:USB_DEVICE/Target/usbd_conf.c ****     __HAL_RCC_USB_CLK_DISABLE();
  94:USB_DEVICE/Target/usbd_conf.c **** 
  95:USB_DEVICE/Target/usbd_conf.c ****     /* Peripheral interrupt Deinit*/
  96:USB_DEVICE/Target/usbd_conf.c ****     HAL_NVIC_DisableIRQ(USB_IRQn);
  97:USB_DEVICE/Target/usbd_conf.c **** 
  98:USB_DEVICE/Target/usbd_conf.c ****   /* USER CODE BEGIN USB_MspDeInit 1 */
  99:USB_DEVICE/Target/usbd_conf.c **** 
 100:USB_DEVICE/Target/usbd_conf.c ****   /* USER CODE END USB_MspDeInit 1 */
 101:USB_DEVICE/Target/usbd_conf.c ****   }
 102:USB_DEVICE/Target/usbd_conf.c **** }
 103:USB_DEVICE/Target/usbd_conf.c **** 
 104:USB_DEVICE/Target/usbd_conf.c **** /**
 105:USB_DEVICE/Target/usbd_conf.c ****   * @brief  Setup stage callback
 106:USB_DEVICE/Target/usbd_conf.c ****   * @param  hpcd: PCD handle
 107:USB_DEVICE/Target/usbd_conf.c ****   * @retval None
 108:USB_DEVICE/Target/usbd_conf.c ****   */
 109:USB_DEVICE/Target/usbd_conf.c **** #if (USE_HAL_PCD_REGISTER_CALLBACKS == 1U)
 110:USB_DEVICE/Target/usbd_conf.c **** static void PCD_SetupStageCallback(PCD_HandleTypeDef *hpcd)
 111:USB_DEVICE/Target/usbd_conf.c **** #else
 112:USB_DEVICE/Target/usbd_conf.c **** void HAL_PCD_SetupStageCallback(PCD_HandleTypeDef *hpcd)
 113:USB_DEVICE/Target/usbd_conf.c **** #endif /* USE_HAL_PCD_REGISTER_CALLBACKS */
 114:USB_DEVICE/Target/usbd_conf.c **** {
 115:USB_DEVICE/Target/usbd_conf.c ****   USBD_LL_SetupStage((USBD_HandleTypeDef*)hpcd->pData, (uint8_t *)hpcd->Setup);
 116:USB_DEVICE/Target/usbd_conf.c **** }
 117:USB_DEVICE/Target/usbd_conf.c **** 
 118:USB_DEVICE/Target/usbd_conf.c **** /**
 119:USB_DEVICE/Target/usbd_conf.c ****   * @brief  Data Out stage callback.
 120:USB_DEVICE/Target/usbd_conf.c ****   * @param  hpcd: PCD handle
 121:USB_DEVICE/Target/usbd_conf.c ****   * @param  epnum: Endpoint number
 122:USB_DEVICE/Target/usbd_conf.c ****   * @retval None
 123:USB_DEVICE/Target/usbd_conf.c ****   */
 124:USB_DEVICE/Target/usbd_conf.c **** #if (USE_HAL_PCD_REGISTER_CALLBACKS == 1U)
 125:USB_DEVICE/Target/usbd_conf.c **** static void PCD_DataOutStageCallback(PCD_HandleTypeDef *hpcd, uint8_t epnum)
 126:USB_DEVICE/Target/usbd_conf.c **** #else
 127:USB_DEVICE/Target/usbd_conf.c **** void HAL_PCD_DataOutStageCallback(PCD_HandleTypeDef *hpcd, uint8_t epnum)
 128:USB_DEVICE/Target/usbd_conf.c **** #endif /* USE_HAL_PCD_REGISTER_CALLBACKS */
 129:USB_DEVICE/Target/usbd_conf.c **** {
 130:USB_DEVICE/Target/usbd_conf.c ****   USBD_LL_DataOutStage((USBD_HandleTypeDef*)hpcd->pData, epnum, hpcd->OUT_ep[epnum].xfer_buff);
 131:USB_DEVICE/Target/usbd_conf.c **** }
 132:USB_DEVICE/Target/usbd_conf.c **** 
 133:USB_DEVICE/Target/usbd_conf.c **** /**
 134:USB_DEVICE/Target/usbd_conf.c ****   * @brief  Data In stage callback.
 135:USB_DEVICE/Target/usbd_conf.c ****   * @param  hpcd: PCD handle
 136:USB_DEVICE/Target/usbd_conf.c ****   * @param  epnum: Endpoint number
 137:USB_DEVICE/Target/usbd_conf.c ****   * @retval None
 138:USB_DEVICE/Target/usbd_conf.c ****   */
 139:USB_DEVICE/Target/usbd_conf.c **** #if (USE_HAL_PCD_REGISTER_CALLBACKS == 1U)
 140:USB_DEVICE/Target/usbd_conf.c **** static void PCD_DataInStageCallback(PCD_HandleTypeDef *hpcd, uint8_t epnum)
 141:USB_DEVICE/Target/usbd_conf.c **** #else
 142:USB_DEVICE/Target/usbd_conf.c **** void HAL_PCD_DataInStageCallback(PCD_HandleTypeDef *hpcd, uint8_t epnum)
 143:USB_DEVICE/Target/usbd_conf.c **** #endif /* USE_HAL_PCD_REGISTER_CALLBACKS */
 144:USB_DEVICE/Target/usbd_conf.c **** {
 145:USB_DEVICE/Target/usbd_conf.c ****   USBD_LL_DataInStage((USBD_HandleTypeDef*)hpcd->pData, epnum, hpcd->IN_ep[epnum].xfer_buff);
 146:USB_DEVICE/Target/usbd_conf.c **** }
ARM GAS  /tmp/ccUhKUw1.s 			page 4


 147:USB_DEVICE/Target/usbd_conf.c **** 
 148:USB_DEVICE/Target/usbd_conf.c **** /**
 149:USB_DEVICE/Target/usbd_conf.c ****   * @brief  SOF callback.
 150:USB_DEVICE/Target/usbd_conf.c ****   * @param  hpcd: PCD handle
 151:USB_DEVICE/Target/usbd_conf.c ****   * @retval None
 152:USB_DEVICE/Target/usbd_conf.c ****   */
 153:USB_DEVICE/Target/usbd_conf.c **** #if (USE_HAL_PCD_REGISTER_CALLBACKS == 1U)
 154:USB_DEVICE/Target/usbd_conf.c **** static void PCD_SOFCallback(PCD_HandleTypeDef *hpcd)
 155:USB_DEVICE/Target/usbd_conf.c **** #else
 156:USB_DEVICE/Target/usbd_conf.c **** void HAL_PCD_SOFCallback(PCD_HandleTypeDef *hpcd)
 157:USB_DEVICE/Target/usbd_conf.c **** #endif /* USE_HAL_PCD_REGISTER_CALLBACKS */
 158:USB_DEVICE/Target/usbd_conf.c **** {
 159:USB_DEVICE/Target/usbd_conf.c ****   USBD_LL_SOF((USBD_HandleTypeDef*)hpcd->pData);
 160:USB_DEVICE/Target/usbd_conf.c **** }
 161:USB_DEVICE/Target/usbd_conf.c **** 
 162:USB_DEVICE/Target/usbd_conf.c **** /**
 163:USB_DEVICE/Target/usbd_conf.c ****   * @brief  Reset callback.
 164:USB_DEVICE/Target/usbd_conf.c ****   * @param  hpcd: PCD handle
 165:USB_DEVICE/Target/usbd_conf.c ****   * @retval None
 166:USB_DEVICE/Target/usbd_conf.c ****   */
 167:USB_DEVICE/Target/usbd_conf.c **** #if (USE_HAL_PCD_REGISTER_CALLBACKS == 1U)
 168:USB_DEVICE/Target/usbd_conf.c **** static void PCD_ResetCallback(PCD_HandleTypeDef *hpcd)
 169:USB_DEVICE/Target/usbd_conf.c **** #else
 170:USB_DEVICE/Target/usbd_conf.c **** void HAL_PCD_ResetCallback(PCD_HandleTypeDef *hpcd)
 171:USB_DEVICE/Target/usbd_conf.c **** #endif /* USE_HAL_PCD_REGISTER_CALLBACKS */
 172:USB_DEVICE/Target/usbd_conf.c **** {
 173:USB_DEVICE/Target/usbd_conf.c ****   USBD_SpeedTypeDef speed = USBD_SPEED_FULL;
 174:USB_DEVICE/Target/usbd_conf.c **** 
 175:USB_DEVICE/Target/usbd_conf.c ****   if ( hpcd->Init.speed != PCD_SPEED_FULL)
 176:USB_DEVICE/Target/usbd_conf.c ****   {
 177:USB_DEVICE/Target/usbd_conf.c ****     Error_Handler();
 178:USB_DEVICE/Target/usbd_conf.c ****   }
 179:USB_DEVICE/Target/usbd_conf.c ****     /* Set Speed. */
 180:USB_DEVICE/Target/usbd_conf.c ****   USBD_LL_SetSpeed((USBD_HandleTypeDef*)hpcd->pData, speed);
 181:USB_DEVICE/Target/usbd_conf.c **** 
 182:USB_DEVICE/Target/usbd_conf.c ****   /* Reset Device. */
 183:USB_DEVICE/Target/usbd_conf.c ****   USBD_LL_Reset((USBD_HandleTypeDef*)hpcd->pData);
 184:USB_DEVICE/Target/usbd_conf.c **** }
 185:USB_DEVICE/Target/usbd_conf.c **** 
 186:USB_DEVICE/Target/usbd_conf.c **** /**
 187:USB_DEVICE/Target/usbd_conf.c ****   * @brief  Suspend callback.
 188:USB_DEVICE/Target/usbd_conf.c ****   * When Low power mode is enabled the debug cannot be used (IAR, Keil doesn't support it)
 189:USB_DEVICE/Target/usbd_conf.c ****   * @param  hpcd: PCD handle
 190:USB_DEVICE/Target/usbd_conf.c ****   * @retval None
 191:USB_DEVICE/Target/usbd_conf.c ****   */
 192:USB_DEVICE/Target/usbd_conf.c **** #if (USE_HAL_PCD_REGISTER_CALLBACKS == 1U)
 193:USB_DEVICE/Target/usbd_conf.c **** static void PCD_SuspendCallback(PCD_HandleTypeDef *hpcd)
 194:USB_DEVICE/Target/usbd_conf.c **** #else
 195:USB_DEVICE/Target/usbd_conf.c **** void HAL_PCD_SuspendCallback(PCD_HandleTypeDef *hpcd)
 196:USB_DEVICE/Target/usbd_conf.c **** #endif /* USE_HAL_PCD_REGISTER_CALLBACKS */
 197:USB_DEVICE/Target/usbd_conf.c **** {
 198:USB_DEVICE/Target/usbd_conf.c ****   /* Inform USB library that core enters in suspend Mode. */
 199:USB_DEVICE/Target/usbd_conf.c ****   USBD_LL_Suspend((USBD_HandleTypeDef*)hpcd->pData);
 200:USB_DEVICE/Target/usbd_conf.c ****   /* Enter in STOP mode. */
 201:USB_DEVICE/Target/usbd_conf.c ****   /* USER CODE BEGIN 2 */
 202:USB_DEVICE/Target/usbd_conf.c ****   if (hpcd->Init.low_power_enable)
 203:USB_DEVICE/Target/usbd_conf.c ****   {
ARM GAS  /tmp/ccUhKUw1.s 			page 5


 204:USB_DEVICE/Target/usbd_conf.c ****     /* Set SLEEPDEEP bit and SleepOnExit of Cortex System Control Register. */
 205:USB_DEVICE/Target/usbd_conf.c ****     SCB->SCR |= (uint32_t)((uint32_t)(SCB_SCR_SLEEPDEEP_Msk | SCB_SCR_SLEEPONEXIT_Msk));
 206:USB_DEVICE/Target/usbd_conf.c ****   }
 207:USB_DEVICE/Target/usbd_conf.c ****   /* USER CODE END 2 */
 208:USB_DEVICE/Target/usbd_conf.c **** }
 209:USB_DEVICE/Target/usbd_conf.c **** 
 210:USB_DEVICE/Target/usbd_conf.c **** /**
 211:USB_DEVICE/Target/usbd_conf.c ****   * @brief  Resume callback.
 212:USB_DEVICE/Target/usbd_conf.c ****   * When Low power mode is enabled the debug cannot be used (IAR, Keil doesn't support it)
 213:USB_DEVICE/Target/usbd_conf.c ****   * @param  hpcd: PCD handle
 214:USB_DEVICE/Target/usbd_conf.c ****   * @retval None
 215:USB_DEVICE/Target/usbd_conf.c ****   */
 216:USB_DEVICE/Target/usbd_conf.c **** #if (USE_HAL_PCD_REGISTER_CALLBACKS == 1U)
 217:USB_DEVICE/Target/usbd_conf.c **** static void PCD_ResumeCallback(PCD_HandleTypeDef *hpcd)
 218:USB_DEVICE/Target/usbd_conf.c **** #else
 219:USB_DEVICE/Target/usbd_conf.c **** void HAL_PCD_ResumeCallback(PCD_HandleTypeDef *hpcd)
 220:USB_DEVICE/Target/usbd_conf.c **** #endif /* USE_HAL_PCD_REGISTER_CALLBACKS */
 221:USB_DEVICE/Target/usbd_conf.c **** {
 222:USB_DEVICE/Target/usbd_conf.c ****   /* USER CODE BEGIN 3 */
 223:USB_DEVICE/Target/usbd_conf.c ****   if (hpcd->Init.low_power_enable)
 224:USB_DEVICE/Target/usbd_conf.c ****   {
 225:USB_DEVICE/Target/usbd_conf.c ****     /* Reset SLEEPDEEP bit of Cortex System Control Register. */
 226:USB_DEVICE/Target/usbd_conf.c ****     SCB->SCR &= (uint32_t)~((uint32_t)(SCB_SCR_SLEEPDEEP_Msk | SCB_SCR_SLEEPONEXIT_Msk));
 227:USB_DEVICE/Target/usbd_conf.c ****     SystemClockConfig_Resume();
 228:USB_DEVICE/Target/usbd_conf.c ****   }
 229:USB_DEVICE/Target/usbd_conf.c ****   /* USER CODE END 3 */
 230:USB_DEVICE/Target/usbd_conf.c ****   USBD_LL_Resume((USBD_HandleTypeDef*)hpcd->pData);
 231:USB_DEVICE/Target/usbd_conf.c **** }
 232:USB_DEVICE/Target/usbd_conf.c **** 
 233:USB_DEVICE/Target/usbd_conf.c **** /**
 234:USB_DEVICE/Target/usbd_conf.c ****   * @brief  ISOOUTIncomplete callback.
 235:USB_DEVICE/Target/usbd_conf.c ****   * @param  hpcd: PCD handle
 236:USB_DEVICE/Target/usbd_conf.c ****   * @param  epnum: Endpoint number
 237:USB_DEVICE/Target/usbd_conf.c ****   * @retval None
 238:USB_DEVICE/Target/usbd_conf.c ****   */
 239:USB_DEVICE/Target/usbd_conf.c **** #if (USE_HAL_PCD_REGISTER_CALLBACKS == 1U)
 240:USB_DEVICE/Target/usbd_conf.c **** static void PCD_ISOOUTIncompleteCallback(PCD_HandleTypeDef *hpcd, uint8_t epnum)
 241:USB_DEVICE/Target/usbd_conf.c **** #else
 242:USB_DEVICE/Target/usbd_conf.c **** void HAL_PCD_ISOOUTIncompleteCallback(PCD_HandleTypeDef *hpcd, uint8_t epnum)
 243:USB_DEVICE/Target/usbd_conf.c **** #endif /* USE_HAL_PCD_REGISTER_CALLBACKS */
 244:USB_DEVICE/Target/usbd_conf.c **** {
 245:USB_DEVICE/Target/usbd_conf.c ****   USBD_LL_IsoOUTIncomplete((USBD_HandleTypeDef*)hpcd->pData, epnum);
 246:USB_DEVICE/Target/usbd_conf.c **** }
 247:USB_DEVICE/Target/usbd_conf.c **** 
 248:USB_DEVICE/Target/usbd_conf.c **** /**
 249:USB_DEVICE/Target/usbd_conf.c ****   * @brief  ISOINIncomplete callback.
 250:USB_DEVICE/Target/usbd_conf.c ****   * @param  hpcd: PCD handle
 251:USB_DEVICE/Target/usbd_conf.c ****   * @param  epnum: Endpoint number
 252:USB_DEVICE/Target/usbd_conf.c ****   * @retval None
 253:USB_DEVICE/Target/usbd_conf.c ****   */
 254:USB_DEVICE/Target/usbd_conf.c **** #if (USE_HAL_PCD_REGISTER_CALLBACKS == 1U)
 255:USB_DEVICE/Target/usbd_conf.c **** static void PCD_ISOINIncompleteCallback(PCD_HandleTypeDef *hpcd, uint8_t epnum)
 256:USB_DEVICE/Target/usbd_conf.c **** #else
 257:USB_DEVICE/Target/usbd_conf.c **** void HAL_PCD_ISOINIncompleteCallback(PCD_HandleTypeDef *hpcd, uint8_t epnum)
 258:USB_DEVICE/Target/usbd_conf.c **** #endif /* USE_HAL_PCD_REGISTER_CALLBACKS */
 259:USB_DEVICE/Target/usbd_conf.c **** {
 260:USB_DEVICE/Target/usbd_conf.c ****   USBD_LL_IsoINIncomplete((USBD_HandleTypeDef*)hpcd->pData, epnum);
ARM GAS  /tmp/ccUhKUw1.s 			page 6


 261:USB_DEVICE/Target/usbd_conf.c **** }
 262:USB_DEVICE/Target/usbd_conf.c **** 
 263:USB_DEVICE/Target/usbd_conf.c **** /**
 264:USB_DEVICE/Target/usbd_conf.c ****   * @brief  Connect callback.
 265:USB_DEVICE/Target/usbd_conf.c ****   * @param  hpcd: PCD handle
 266:USB_DEVICE/Target/usbd_conf.c ****   * @retval None
 267:USB_DEVICE/Target/usbd_conf.c ****   */
 268:USB_DEVICE/Target/usbd_conf.c **** #if (USE_HAL_PCD_REGISTER_CALLBACKS == 1U)
 269:USB_DEVICE/Target/usbd_conf.c **** static void PCD_ConnectCallback(PCD_HandleTypeDef *hpcd)
 270:USB_DEVICE/Target/usbd_conf.c **** #else
 271:USB_DEVICE/Target/usbd_conf.c **** void HAL_PCD_ConnectCallback(PCD_HandleTypeDef *hpcd)
 272:USB_DEVICE/Target/usbd_conf.c **** #endif /* USE_HAL_PCD_REGISTER_CALLBACKS */
 273:USB_DEVICE/Target/usbd_conf.c **** {
 274:USB_DEVICE/Target/usbd_conf.c ****   USBD_LL_DevConnected((USBD_HandleTypeDef*)hpcd->pData);
 275:USB_DEVICE/Target/usbd_conf.c **** }
 276:USB_DEVICE/Target/usbd_conf.c **** 
 277:USB_DEVICE/Target/usbd_conf.c **** /**
 278:USB_DEVICE/Target/usbd_conf.c ****   * @brief  Disconnect callback.
 279:USB_DEVICE/Target/usbd_conf.c ****   * @param  hpcd: PCD handle
 280:USB_DEVICE/Target/usbd_conf.c ****   * @retval None
 281:USB_DEVICE/Target/usbd_conf.c ****   */
 282:USB_DEVICE/Target/usbd_conf.c **** #if (USE_HAL_PCD_REGISTER_CALLBACKS == 1U)
 283:USB_DEVICE/Target/usbd_conf.c **** static void PCD_DisconnectCallback(PCD_HandleTypeDef *hpcd)
 284:USB_DEVICE/Target/usbd_conf.c **** #else
 285:USB_DEVICE/Target/usbd_conf.c **** void HAL_PCD_DisconnectCallback(PCD_HandleTypeDef *hpcd)
 286:USB_DEVICE/Target/usbd_conf.c **** #endif /* USE_HAL_PCD_REGISTER_CALLBACKS */
 287:USB_DEVICE/Target/usbd_conf.c **** {
 288:USB_DEVICE/Target/usbd_conf.c ****   USBD_LL_DevDisconnected((USBD_HandleTypeDef*)hpcd->pData);
 289:USB_DEVICE/Target/usbd_conf.c **** }
 290:USB_DEVICE/Target/usbd_conf.c **** 
 291:USB_DEVICE/Target/usbd_conf.c **** /*******************************************************************************
 292:USB_DEVICE/Target/usbd_conf.c ****                        LL Driver Interface (USB Device Library --> PCD)
 293:USB_DEVICE/Target/usbd_conf.c **** *******************************************************************************/
 294:USB_DEVICE/Target/usbd_conf.c **** 
 295:USB_DEVICE/Target/usbd_conf.c **** /**
 296:USB_DEVICE/Target/usbd_conf.c ****   * @brief  Initializes the low level portion of the device driver.
 297:USB_DEVICE/Target/usbd_conf.c ****   * @param  pdev: Device handle
 298:USB_DEVICE/Target/usbd_conf.c ****   * @retval USBD status
 299:USB_DEVICE/Target/usbd_conf.c ****   */
 300:USB_DEVICE/Target/usbd_conf.c **** USBD_StatusTypeDef USBD_LL_Init(USBD_HandleTypeDef *pdev)
 301:USB_DEVICE/Target/usbd_conf.c **** {
 302:USB_DEVICE/Target/usbd_conf.c ****   /* Init USB Ip. */
 303:USB_DEVICE/Target/usbd_conf.c ****   /* Link the driver to the stack. */
 304:USB_DEVICE/Target/usbd_conf.c ****   hpcd_USB_FS.pData = pdev;
 305:USB_DEVICE/Target/usbd_conf.c ****   pdev->pData = &hpcd_USB_FS;
 306:USB_DEVICE/Target/usbd_conf.c **** 
 307:USB_DEVICE/Target/usbd_conf.c ****   hpcd_USB_FS.Instance = USB;
 308:USB_DEVICE/Target/usbd_conf.c ****   hpcd_USB_FS.Init.dev_endpoints = 8;
 309:USB_DEVICE/Target/usbd_conf.c ****   hpcd_USB_FS.Init.speed = PCD_SPEED_FULL;
 310:USB_DEVICE/Target/usbd_conf.c ****   hpcd_USB_FS.Init.phy_itface = PCD_PHY_EMBEDDED;
 311:USB_DEVICE/Target/usbd_conf.c ****   hpcd_USB_FS.Init.low_power_enable = DISABLE;
 312:USB_DEVICE/Target/usbd_conf.c ****   hpcd_USB_FS.Init.lpm_enable = DISABLE;
 313:USB_DEVICE/Target/usbd_conf.c ****   hpcd_USB_FS.Init.battery_charging_enable = DISABLE;
 314:USB_DEVICE/Target/usbd_conf.c ****   if (HAL_PCD_Init(&hpcd_USB_FS) != HAL_OK)
 315:USB_DEVICE/Target/usbd_conf.c ****   {
 316:USB_DEVICE/Target/usbd_conf.c ****     Error_Handler( );
 317:USB_DEVICE/Target/usbd_conf.c ****   }
ARM GAS  /tmp/ccUhKUw1.s 			page 7


 318:USB_DEVICE/Target/usbd_conf.c **** 
 319:USB_DEVICE/Target/usbd_conf.c **** #if (USE_HAL_PCD_REGISTER_CALLBACKS == 1U)
 320:USB_DEVICE/Target/usbd_conf.c ****   /* Register USB PCD CallBacks */
 321:USB_DEVICE/Target/usbd_conf.c ****   HAL_PCD_RegisterCallback(&hpcd_USB_FS, HAL_PCD_SOF_CB_ID, PCD_SOFCallback);
 322:USB_DEVICE/Target/usbd_conf.c ****   HAL_PCD_RegisterCallback(&hpcd_USB_FS, HAL_PCD_SETUPSTAGE_CB_ID, PCD_SetupStageCallback);
 323:USB_DEVICE/Target/usbd_conf.c ****   HAL_PCD_RegisterCallback(&hpcd_USB_FS, HAL_PCD_RESET_CB_ID, PCD_ResetCallback);
 324:USB_DEVICE/Target/usbd_conf.c ****   HAL_PCD_RegisterCallback(&hpcd_USB_FS, HAL_PCD_SUSPEND_CB_ID, PCD_SuspendCallback);
 325:USB_DEVICE/Target/usbd_conf.c ****   HAL_PCD_RegisterCallback(&hpcd_USB_FS, HAL_PCD_RESUME_CB_ID, PCD_ResumeCallback);
 326:USB_DEVICE/Target/usbd_conf.c ****   HAL_PCD_RegisterCallback(&hpcd_USB_FS, HAL_PCD_CONNECT_CB_ID, PCD_ConnectCallback);
 327:USB_DEVICE/Target/usbd_conf.c ****   HAL_PCD_RegisterCallback(&hpcd_USB_FS, HAL_PCD_DISCONNECT_CB_ID, PCD_DisconnectCallback);
 328:USB_DEVICE/Target/usbd_conf.c **** 
 329:USB_DEVICE/Target/usbd_conf.c ****   HAL_PCD_RegisterDataOutStageCallback(&hpcd_USB_FS, PCD_DataOutStageCallback);
 330:USB_DEVICE/Target/usbd_conf.c ****   HAL_PCD_RegisterDataInStageCallback(&hpcd_USB_FS, PCD_DataInStageCallback);
 331:USB_DEVICE/Target/usbd_conf.c ****   HAL_PCD_RegisterIsoOutIncpltCallback(&hpcd_USB_FS, PCD_ISOOUTIncompleteCallback);
 332:USB_DEVICE/Target/usbd_conf.c ****   HAL_PCD_RegisterIsoInIncpltCallback(&hpcd_USB_FS, PCD_ISOINIncompleteCallback);
 333:USB_DEVICE/Target/usbd_conf.c **** #endif /* USE_HAL_PCD_REGISTER_CALLBACKS */
 334:USB_DEVICE/Target/usbd_conf.c ****   /* USER CODE BEGIN EndPoint_Configuration */
 335:USB_DEVICE/Target/usbd_conf.c ****   HAL_PCDEx_PMAConfig((PCD_HandleTypeDef*)pdev->pData , 0x00 , PCD_SNG_BUF, 0x18);
 336:USB_DEVICE/Target/usbd_conf.c ****   HAL_PCDEx_PMAConfig((PCD_HandleTypeDef*)pdev->pData , 0x80 , PCD_SNG_BUF, 0x58);
 337:USB_DEVICE/Target/usbd_conf.c ****   /* USER CODE END EndPoint_Configuration */
 338:USB_DEVICE/Target/usbd_conf.c ****   /* USER CODE BEGIN EndPoint_Configuration_HID */
 339:USB_DEVICE/Target/usbd_conf.c ****   HAL_PCDEx_PMAConfig((PCD_HandleTypeDef*)pdev->pData , 0x81 , PCD_SNG_BUF, 0x100);
 340:USB_DEVICE/Target/usbd_conf.c ****   /* USER CODE END EndPoint_Configuration_HID */
 341:USB_DEVICE/Target/usbd_conf.c ****   return USBD_OK;
 342:USB_DEVICE/Target/usbd_conf.c **** }
 343:USB_DEVICE/Target/usbd_conf.c **** 
 344:USB_DEVICE/Target/usbd_conf.c **** /**
 345:USB_DEVICE/Target/usbd_conf.c ****   * @brief  De-Initializes the low level portion of the device driver.
 346:USB_DEVICE/Target/usbd_conf.c ****   * @param  pdev: Device handle
 347:USB_DEVICE/Target/usbd_conf.c ****   * @retval USBD status
 348:USB_DEVICE/Target/usbd_conf.c ****   */
 349:USB_DEVICE/Target/usbd_conf.c **** USBD_StatusTypeDef USBD_LL_DeInit(USBD_HandleTypeDef *pdev)
 350:USB_DEVICE/Target/usbd_conf.c **** {
 351:USB_DEVICE/Target/usbd_conf.c ****   HAL_StatusTypeDef hal_status = HAL_OK;
 352:USB_DEVICE/Target/usbd_conf.c ****   USBD_StatusTypeDef usb_status = USBD_OK;
 353:USB_DEVICE/Target/usbd_conf.c **** 
 354:USB_DEVICE/Target/usbd_conf.c ****   hal_status = HAL_PCD_DeInit(pdev->pData);
 355:USB_DEVICE/Target/usbd_conf.c **** 
 356:USB_DEVICE/Target/usbd_conf.c ****   usb_status =  USBD_Get_USB_Status(hal_status);
 357:USB_DEVICE/Target/usbd_conf.c **** 
 358:USB_DEVICE/Target/usbd_conf.c ****   return usb_status;
 359:USB_DEVICE/Target/usbd_conf.c **** }
 360:USB_DEVICE/Target/usbd_conf.c **** 
 361:USB_DEVICE/Target/usbd_conf.c **** /**
 362:USB_DEVICE/Target/usbd_conf.c ****   * @brief  Starts the low level portion of the device driver.
 363:USB_DEVICE/Target/usbd_conf.c ****   * @param  pdev: Device handle
 364:USB_DEVICE/Target/usbd_conf.c ****   * @retval USBD status
 365:USB_DEVICE/Target/usbd_conf.c ****   */
 366:USB_DEVICE/Target/usbd_conf.c **** USBD_StatusTypeDef USBD_LL_Start(USBD_HandleTypeDef *pdev)
 367:USB_DEVICE/Target/usbd_conf.c **** {
 368:USB_DEVICE/Target/usbd_conf.c ****   HAL_StatusTypeDef hal_status = HAL_OK;
 369:USB_DEVICE/Target/usbd_conf.c ****   USBD_StatusTypeDef usb_status = USBD_OK;
 370:USB_DEVICE/Target/usbd_conf.c **** 
 371:USB_DEVICE/Target/usbd_conf.c ****   hal_status = HAL_PCD_Start(pdev->pData);
 372:USB_DEVICE/Target/usbd_conf.c **** 
 373:USB_DEVICE/Target/usbd_conf.c ****   usb_status =  USBD_Get_USB_Status(hal_status);
 374:USB_DEVICE/Target/usbd_conf.c **** 
ARM GAS  /tmp/ccUhKUw1.s 			page 8


 375:USB_DEVICE/Target/usbd_conf.c ****   return usb_status;
 376:USB_DEVICE/Target/usbd_conf.c **** }
 377:USB_DEVICE/Target/usbd_conf.c **** 
 378:USB_DEVICE/Target/usbd_conf.c **** /**
 379:USB_DEVICE/Target/usbd_conf.c ****   * @brief  Stops the low level portion of the device driver.
 380:USB_DEVICE/Target/usbd_conf.c ****   * @param  pdev: Device handle
 381:USB_DEVICE/Target/usbd_conf.c ****   * @retval USBD status
 382:USB_DEVICE/Target/usbd_conf.c ****   */
 383:USB_DEVICE/Target/usbd_conf.c **** USBD_StatusTypeDef USBD_LL_Stop(USBD_HandleTypeDef *pdev)
 384:USB_DEVICE/Target/usbd_conf.c **** {
 385:USB_DEVICE/Target/usbd_conf.c ****   HAL_StatusTypeDef hal_status = HAL_OK;
 386:USB_DEVICE/Target/usbd_conf.c ****   USBD_StatusTypeDef usb_status = USBD_OK;
 387:USB_DEVICE/Target/usbd_conf.c **** 
 388:USB_DEVICE/Target/usbd_conf.c ****   hal_status = HAL_PCD_Stop(pdev->pData);
 389:USB_DEVICE/Target/usbd_conf.c **** 
 390:USB_DEVICE/Target/usbd_conf.c ****   usb_status =  USBD_Get_USB_Status(hal_status);
 391:USB_DEVICE/Target/usbd_conf.c **** 
 392:USB_DEVICE/Target/usbd_conf.c ****   return usb_status;
 393:USB_DEVICE/Target/usbd_conf.c **** }
 394:USB_DEVICE/Target/usbd_conf.c **** 
 395:USB_DEVICE/Target/usbd_conf.c **** /**
 396:USB_DEVICE/Target/usbd_conf.c ****   * @brief  Opens an endpoint of the low level driver.
 397:USB_DEVICE/Target/usbd_conf.c ****   * @param  pdev: Device handle
 398:USB_DEVICE/Target/usbd_conf.c ****   * @param  ep_addr: Endpoint number
 399:USB_DEVICE/Target/usbd_conf.c ****   * @param  ep_type: Endpoint type
 400:USB_DEVICE/Target/usbd_conf.c ****   * @param  ep_mps: Endpoint max packet size
 401:USB_DEVICE/Target/usbd_conf.c ****   * @retval USBD status
 402:USB_DEVICE/Target/usbd_conf.c ****   */
 403:USB_DEVICE/Target/usbd_conf.c **** USBD_StatusTypeDef USBD_LL_OpenEP(USBD_HandleTypeDef *pdev, uint8_t ep_addr, uint8_t ep_type, uint1
 404:USB_DEVICE/Target/usbd_conf.c **** {
 405:USB_DEVICE/Target/usbd_conf.c ****   HAL_StatusTypeDef hal_status = HAL_OK;
 406:USB_DEVICE/Target/usbd_conf.c ****   USBD_StatusTypeDef usb_status = USBD_OK;
 407:USB_DEVICE/Target/usbd_conf.c **** 
 408:USB_DEVICE/Target/usbd_conf.c ****   hal_status = HAL_PCD_EP_Open(pdev->pData, ep_addr, ep_mps, ep_type);
 409:USB_DEVICE/Target/usbd_conf.c **** 
 410:USB_DEVICE/Target/usbd_conf.c ****   usb_status =  USBD_Get_USB_Status(hal_status);
 411:USB_DEVICE/Target/usbd_conf.c **** 
 412:USB_DEVICE/Target/usbd_conf.c ****   return usb_status;
 413:USB_DEVICE/Target/usbd_conf.c **** }
 414:USB_DEVICE/Target/usbd_conf.c **** 
 415:USB_DEVICE/Target/usbd_conf.c **** /**
 416:USB_DEVICE/Target/usbd_conf.c ****   * @brief  Closes an endpoint of the low level driver.
 417:USB_DEVICE/Target/usbd_conf.c ****   * @param  pdev: Device handle
 418:USB_DEVICE/Target/usbd_conf.c ****   * @param  ep_addr: Endpoint number
 419:USB_DEVICE/Target/usbd_conf.c ****   * @retval USBD status
 420:USB_DEVICE/Target/usbd_conf.c ****   */
 421:USB_DEVICE/Target/usbd_conf.c **** USBD_StatusTypeDef USBD_LL_CloseEP(USBD_HandleTypeDef *pdev, uint8_t ep_addr)
 422:USB_DEVICE/Target/usbd_conf.c **** {
 423:USB_DEVICE/Target/usbd_conf.c ****   HAL_StatusTypeDef hal_status = HAL_OK;
 424:USB_DEVICE/Target/usbd_conf.c ****   USBD_StatusTypeDef usb_status = USBD_OK;
 425:USB_DEVICE/Target/usbd_conf.c **** 
 426:USB_DEVICE/Target/usbd_conf.c ****   hal_status = HAL_PCD_EP_Close(pdev->pData, ep_addr);
 427:USB_DEVICE/Target/usbd_conf.c **** 
 428:USB_DEVICE/Target/usbd_conf.c ****   usb_status =  USBD_Get_USB_Status(hal_status);
 429:USB_DEVICE/Target/usbd_conf.c **** 
 430:USB_DEVICE/Target/usbd_conf.c ****   return usb_status;
 431:USB_DEVICE/Target/usbd_conf.c **** }
ARM GAS  /tmp/ccUhKUw1.s 			page 9


 432:USB_DEVICE/Target/usbd_conf.c **** 
 433:USB_DEVICE/Target/usbd_conf.c **** /**
 434:USB_DEVICE/Target/usbd_conf.c ****   * @brief  Flushes an endpoint of the Low Level Driver.
 435:USB_DEVICE/Target/usbd_conf.c ****   * @param  pdev: Device handle
 436:USB_DEVICE/Target/usbd_conf.c ****   * @param  ep_addr: Endpoint number
 437:USB_DEVICE/Target/usbd_conf.c ****   * @retval USBD status
 438:USB_DEVICE/Target/usbd_conf.c ****   */
 439:USB_DEVICE/Target/usbd_conf.c **** USBD_StatusTypeDef USBD_LL_FlushEP(USBD_HandleTypeDef *pdev, uint8_t ep_addr)
 440:USB_DEVICE/Target/usbd_conf.c **** {
 441:USB_DEVICE/Target/usbd_conf.c ****   HAL_StatusTypeDef hal_status = HAL_OK;
 442:USB_DEVICE/Target/usbd_conf.c ****   USBD_StatusTypeDef usb_status = USBD_OK;
 443:USB_DEVICE/Target/usbd_conf.c **** 
 444:USB_DEVICE/Target/usbd_conf.c ****   hal_status = HAL_PCD_EP_Flush(pdev->pData, ep_addr);
 445:USB_DEVICE/Target/usbd_conf.c **** 
 446:USB_DEVICE/Target/usbd_conf.c ****   usb_status =  USBD_Get_USB_Status(hal_status);
 447:USB_DEVICE/Target/usbd_conf.c **** 
 448:USB_DEVICE/Target/usbd_conf.c ****   return usb_status;
 449:USB_DEVICE/Target/usbd_conf.c **** }
 450:USB_DEVICE/Target/usbd_conf.c **** 
 451:USB_DEVICE/Target/usbd_conf.c **** /**
 452:USB_DEVICE/Target/usbd_conf.c ****   * @brief  Sets a Stall condition on an endpoint of the Low Level Driver.
 453:USB_DEVICE/Target/usbd_conf.c ****   * @param  pdev: Device handle
 454:USB_DEVICE/Target/usbd_conf.c ****   * @param  ep_addr: Endpoint number
 455:USB_DEVICE/Target/usbd_conf.c ****   * @retval USBD status
 456:USB_DEVICE/Target/usbd_conf.c ****   */
 457:USB_DEVICE/Target/usbd_conf.c **** USBD_StatusTypeDef USBD_LL_StallEP(USBD_HandleTypeDef *pdev, uint8_t ep_addr)
 458:USB_DEVICE/Target/usbd_conf.c **** {
 459:USB_DEVICE/Target/usbd_conf.c ****   HAL_StatusTypeDef hal_status = HAL_OK;
 460:USB_DEVICE/Target/usbd_conf.c ****   USBD_StatusTypeDef usb_status = USBD_OK;
 461:USB_DEVICE/Target/usbd_conf.c **** 
 462:USB_DEVICE/Target/usbd_conf.c ****   hal_status = HAL_PCD_EP_SetStall(pdev->pData, ep_addr);
 463:USB_DEVICE/Target/usbd_conf.c **** 
 464:USB_DEVICE/Target/usbd_conf.c ****   usb_status =  USBD_Get_USB_Status(hal_status);
 465:USB_DEVICE/Target/usbd_conf.c **** 
 466:USB_DEVICE/Target/usbd_conf.c ****   return usb_status;
 467:USB_DEVICE/Target/usbd_conf.c **** }
 468:USB_DEVICE/Target/usbd_conf.c **** 
 469:USB_DEVICE/Target/usbd_conf.c **** /**
 470:USB_DEVICE/Target/usbd_conf.c ****   * @brief  Clears a Stall condition on an endpoint of the Low Level Driver.
 471:USB_DEVICE/Target/usbd_conf.c ****   * @param  pdev: Device handle
 472:USB_DEVICE/Target/usbd_conf.c ****   * @param  ep_addr: Endpoint number
 473:USB_DEVICE/Target/usbd_conf.c ****   * @retval USBD status
 474:USB_DEVICE/Target/usbd_conf.c ****   */
 475:USB_DEVICE/Target/usbd_conf.c **** USBD_StatusTypeDef USBD_LL_ClearStallEP(USBD_HandleTypeDef *pdev, uint8_t ep_addr)
 476:USB_DEVICE/Target/usbd_conf.c **** {
 477:USB_DEVICE/Target/usbd_conf.c ****   HAL_StatusTypeDef hal_status = HAL_OK;
 478:USB_DEVICE/Target/usbd_conf.c ****   USBD_StatusTypeDef usb_status = USBD_OK;
 479:USB_DEVICE/Target/usbd_conf.c **** 
 480:USB_DEVICE/Target/usbd_conf.c ****   hal_status = HAL_PCD_EP_ClrStall(pdev->pData, ep_addr);
 481:USB_DEVICE/Target/usbd_conf.c **** 
 482:USB_DEVICE/Target/usbd_conf.c ****   usb_status =  USBD_Get_USB_Status(hal_status);
 483:USB_DEVICE/Target/usbd_conf.c **** 
 484:USB_DEVICE/Target/usbd_conf.c ****   return usb_status;
 485:USB_DEVICE/Target/usbd_conf.c **** }
 486:USB_DEVICE/Target/usbd_conf.c **** 
 487:USB_DEVICE/Target/usbd_conf.c **** /**
 488:USB_DEVICE/Target/usbd_conf.c ****   * @brief  Returns Stall condition.
ARM GAS  /tmp/ccUhKUw1.s 			page 10


 489:USB_DEVICE/Target/usbd_conf.c ****   * @param  pdev: Device handle
 490:USB_DEVICE/Target/usbd_conf.c ****   * @param  ep_addr: Endpoint number
 491:USB_DEVICE/Target/usbd_conf.c ****   * @retval Stall (1: Yes, 0: No)
 492:USB_DEVICE/Target/usbd_conf.c ****   */
 493:USB_DEVICE/Target/usbd_conf.c **** uint8_t USBD_LL_IsStallEP(USBD_HandleTypeDef *pdev, uint8_t ep_addr)
 494:USB_DEVICE/Target/usbd_conf.c **** {
 495:USB_DEVICE/Target/usbd_conf.c ****   PCD_HandleTypeDef *hpcd = (PCD_HandleTypeDef*) pdev->pData;
 496:USB_DEVICE/Target/usbd_conf.c **** 
 497:USB_DEVICE/Target/usbd_conf.c ****   if((ep_addr & 0x80) == 0x80)
 498:USB_DEVICE/Target/usbd_conf.c ****   {
 499:USB_DEVICE/Target/usbd_conf.c ****     return hpcd->IN_ep[ep_addr & 0x7F].is_stall;
 500:USB_DEVICE/Target/usbd_conf.c ****   }
 501:USB_DEVICE/Target/usbd_conf.c ****   else
 502:USB_DEVICE/Target/usbd_conf.c ****   {
 503:USB_DEVICE/Target/usbd_conf.c ****     return hpcd->OUT_ep[ep_addr & 0x7F].is_stall;
 504:USB_DEVICE/Target/usbd_conf.c ****   }
 505:USB_DEVICE/Target/usbd_conf.c **** }
 506:USB_DEVICE/Target/usbd_conf.c **** 
 507:USB_DEVICE/Target/usbd_conf.c **** /**
 508:USB_DEVICE/Target/usbd_conf.c ****   * @brief  Assigns a USB address to the device.
 509:USB_DEVICE/Target/usbd_conf.c ****   * @param  pdev: Device handle
 510:USB_DEVICE/Target/usbd_conf.c ****   * @param  dev_addr: Device address
 511:USB_DEVICE/Target/usbd_conf.c ****   * @retval USBD status
 512:USB_DEVICE/Target/usbd_conf.c ****   */
 513:USB_DEVICE/Target/usbd_conf.c **** USBD_StatusTypeDef USBD_LL_SetUSBAddress(USBD_HandleTypeDef *pdev, uint8_t dev_addr)
 514:USB_DEVICE/Target/usbd_conf.c **** {
 515:USB_DEVICE/Target/usbd_conf.c ****   HAL_StatusTypeDef hal_status = HAL_OK;
 516:USB_DEVICE/Target/usbd_conf.c ****   USBD_StatusTypeDef usb_status = USBD_OK;
 517:USB_DEVICE/Target/usbd_conf.c **** 
 518:USB_DEVICE/Target/usbd_conf.c ****   hal_status = HAL_PCD_SetAddress(pdev->pData, dev_addr);
 519:USB_DEVICE/Target/usbd_conf.c **** 
 520:USB_DEVICE/Target/usbd_conf.c ****   usb_status =  USBD_Get_USB_Status(hal_status);
 521:USB_DEVICE/Target/usbd_conf.c **** 
 522:USB_DEVICE/Target/usbd_conf.c ****   return usb_status;
 523:USB_DEVICE/Target/usbd_conf.c **** }
 524:USB_DEVICE/Target/usbd_conf.c **** 
 525:USB_DEVICE/Target/usbd_conf.c **** /**
 526:USB_DEVICE/Target/usbd_conf.c ****   * @brief  Transmits data over an endpoint.
 527:USB_DEVICE/Target/usbd_conf.c ****   * @param  pdev: Device handle
 528:USB_DEVICE/Target/usbd_conf.c ****   * @param  ep_addr: Endpoint number
 529:USB_DEVICE/Target/usbd_conf.c ****   * @param  pbuf: Pointer to data to be sent
 530:USB_DEVICE/Target/usbd_conf.c ****   * @param  size: Data size
 531:USB_DEVICE/Target/usbd_conf.c ****   * @retval USBD status
 532:USB_DEVICE/Target/usbd_conf.c ****   */
 533:USB_DEVICE/Target/usbd_conf.c **** USBD_StatusTypeDef USBD_LL_Transmit(USBD_HandleTypeDef *pdev, uint8_t ep_addr, uint8_t *pbuf, uint1
 534:USB_DEVICE/Target/usbd_conf.c **** {
 535:USB_DEVICE/Target/usbd_conf.c ****   HAL_StatusTypeDef hal_status = HAL_OK;
 536:USB_DEVICE/Target/usbd_conf.c ****   USBD_StatusTypeDef usb_status = USBD_OK;
 537:USB_DEVICE/Target/usbd_conf.c **** 
 538:USB_DEVICE/Target/usbd_conf.c ****   hal_status = HAL_PCD_EP_Transmit(pdev->pData, ep_addr, pbuf, size);
 539:USB_DEVICE/Target/usbd_conf.c **** 
 540:USB_DEVICE/Target/usbd_conf.c ****   usb_status =  USBD_Get_USB_Status(hal_status);
 541:USB_DEVICE/Target/usbd_conf.c **** 
 542:USB_DEVICE/Target/usbd_conf.c ****   return usb_status;
 543:USB_DEVICE/Target/usbd_conf.c **** }
 544:USB_DEVICE/Target/usbd_conf.c **** 
 545:USB_DEVICE/Target/usbd_conf.c **** /**
ARM GAS  /tmp/ccUhKUw1.s 			page 11


 546:USB_DEVICE/Target/usbd_conf.c ****   * @brief  Prepares an endpoint for reception.
 547:USB_DEVICE/Target/usbd_conf.c ****   * @param  pdev: Device handle
 548:USB_DEVICE/Target/usbd_conf.c ****   * @param  ep_addr: Endpoint number
 549:USB_DEVICE/Target/usbd_conf.c ****   * @param  pbuf: Pointer to data to be received
 550:USB_DEVICE/Target/usbd_conf.c ****   * @param  size: Data size
 551:USB_DEVICE/Target/usbd_conf.c ****   * @retval USBD status
 552:USB_DEVICE/Target/usbd_conf.c ****   */
 553:USB_DEVICE/Target/usbd_conf.c **** USBD_StatusTypeDef USBD_LL_PrepareReceive(USBD_HandleTypeDef *pdev, uint8_t ep_addr, uint8_t *pbuf,
 554:USB_DEVICE/Target/usbd_conf.c **** {
 555:USB_DEVICE/Target/usbd_conf.c ****   HAL_StatusTypeDef hal_status = HAL_OK;
 556:USB_DEVICE/Target/usbd_conf.c ****   USBD_StatusTypeDef usb_status = USBD_OK;
 557:USB_DEVICE/Target/usbd_conf.c **** 
 558:USB_DEVICE/Target/usbd_conf.c ****   hal_status = HAL_PCD_EP_Receive(pdev->pData, ep_addr, pbuf, size);
 559:USB_DEVICE/Target/usbd_conf.c **** 
 560:USB_DEVICE/Target/usbd_conf.c ****   usb_status =  USBD_Get_USB_Status(hal_status);
 561:USB_DEVICE/Target/usbd_conf.c **** 
 562:USB_DEVICE/Target/usbd_conf.c ****   return usb_status;
 563:USB_DEVICE/Target/usbd_conf.c **** }
 564:USB_DEVICE/Target/usbd_conf.c **** 
 565:USB_DEVICE/Target/usbd_conf.c **** /**
 566:USB_DEVICE/Target/usbd_conf.c ****   * @brief  Returns the last transferred packet size.
 567:USB_DEVICE/Target/usbd_conf.c ****   * @param  pdev: Device handle
 568:USB_DEVICE/Target/usbd_conf.c ****   * @param  ep_addr: Endpoint number
 569:USB_DEVICE/Target/usbd_conf.c ****   * @retval Received Data Size
 570:USB_DEVICE/Target/usbd_conf.c ****   */
 571:USB_DEVICE/Target/usbd_conf.c **** uint32_t USBD_LL_GetRxDataSize(USBD_HandleTypeDef *pdev, uint8_t ep_addr)
 572:USB_DEVICE/Target/usbd_conf.c **** {
 573:USB_DEVICE/Target/usbd_conf.c ****   return HAL_PCD_EP_GetRxCount((PCD_HandleTypeDef*) pdev->pData, ep_addr);
 574:USB_DEVICE/Target/usbd_conf.c **** }
 575:USB_DEVICE/Target/usbd_conf.c **** 
 576:USB_DEVICE/Target/usbd_conf.c **** /**
 577:USB_DEVICE/Target/usbd_conf.c ****   * @brief  Delays routine for the USB device library.
 578:USB_DEVICE/Target/usbd_conf.c ****   * @param  Delay: Delay in ms
 579:USB_DEVICE/Target/usbd_conf.c ****   * @retval None
 580:USB_DEVICE/Target/usbd_conf.c ****   */
 581:USB_DEVICE/Target/usbd_conf.c **** void USBD_LL_Delay(uint32_t Delay)
 582:USB_DEVICE/Target/usbd_conf.c **** {
 583:USB_DEVICE/Target/usbd_conf.c ****   HAL_Delay(Delay);
 584:USB_DEVICE/Target/usbd_conf.c **** }
 585:USB_DEVICE/Target/usbd_conf.c **** 
 586:USB_DEVICE/Target/usbd_conf.c **** /**
 587:USB_DEVICE/Target/usbd_conf.c ****   * @brief  Static single allocation.
 588:USB_DEVICE/Target/usbd_conf.c ****   * @param  size: Size of allocated memory
 589:USB_DEVICE/Target/usbd_conf.c ****   * @retval None
 590:USB_DEVICE/Target/usbd_conf.c ****   */
 591:USB_DEVICE/Target/usbd_conf.c **** void *USBD_static_malloc(uint32_t size)
 592:USB_DEVICE/Target/usbd_conf.c **** {
 593:USB_DEVICE/Target/usbd_conf.c ****   static uint32_t mem[(sizeof(USBD_HID_HandleTypeDef)/4)+1];/* On 32-bit boundary */
 594:USB_DEVICE/Target/usbd_conf.c ****   return mem;
 595:USB_DEVICE/Target/usbd_conf.c **** }
 596:USB_DEVICE/Target/usbd_conf.c **** 
 597:USB_DEVICE/Target/usbd_conf.c **** /**
 598:USB_DEVICE/Target/usbd_conf.c ****   * @brief  Dummy memory free
 599:USB_DEVICE/Target/usbd_conf.c ****   * @param  p: Pointer to allocated  memory address
 600:USB_DEVICE/Target/usbd_conf.c ****   * @retval None
 601:USB_DEVICE/Target/usbd_conf.c ****   */
 602:USB_DEVICE/Target/usbd_conf.c **** void USBD_static_free(void *p)
ARM GAS  /tmp/ccUhKUw1.s 			page 12


 603:USB_DEVICE/Target/usbd_conf.c **** {
 604:USB_DEVICE/Target/usbd_conf.c **** 
 605:USB_DEVICE/Target/usbd_conf.c **** }
 606:USB_DEVICE/Target/usbd_conf.c **** 
 607:USB_DEVICE/Target/usbd_conf.c **** /* USER CODE BEGIN 5 */
 608:USB_DEVICE/Target/usbd_conf.c **** /**
 609:USB_DEVICE/Target/usbd_conf.c ****   * @brief  Configures system clock after wake-up from USB Resume CallBack:
 610:USB_DEVICE/Target/usbd_conf.c ****   *         enable HSI, PLL and select PLL as system clock source.
 611:USB_DEVICE/Target/usbd_conf.c ****   * @retval None
 612:USB_DEVICE/Target/usbd_conf.c ****   */
 613:USB_DEVICE/Target/usbd_conf.c **** static void SystemClockConfig_Resume(void)
 614:USB_DEVICE/Target/usbd_conf.c **** {
 615:USB_DEVICE/Target/usbd_conf.c ****   SystemClock_Config();
 616:USB_DEVICE/Target/usbd_conf.c **** }
 617:USB_DEVICE/Target/usbd_conf.c **** /* USER CODE END 5 */
 618:USB_DEVICE/Target/usbd_conf.c **** 
 619:USB_DEVICE/Target/usbd_conf.c **** /**
 620:USB_DEVICE/Target/usbd_conf.c ****   * @brief  Returns the USB status depending on the HAL status:
 621:USB_DEVICE/Target/usbd_conf.c ****   * @param  hal_status: HAL status
 622:USB_DEVICE/Target/usbd_conf.c ****   * @retval USB status
 623:USB_DEVICE/Target/usbd_conf.c ****   */
 624:USB_DEVICE/Target/usbd_conf.c **** USBD_StatusTypeDef USBD_Get_USB_Status(HAL_StatusTypeDef hal_status)
 625:USB_DEVICE/Target/usbd_conf.c **** {
  27              		.loc 1 625 1 view -0
  28              		.cfi_startproc
  29              		@ args = 0, pretend = 0, frame = 0
  30              		@ frame_needed = 0, uses_anonymous_args = 0
  31              		@ link register save eliminated.
 626:USB_DEVICE/Target/usbd_conf.c ****   USBD_StatusTypeDef usb_status = USBD_OK;
  32              		.loc 1 626 3 view .LVU1
 627:USB_DEVICE/Target/usbd_conf.c **** 
 628:USB_DEVICE/Target/usbd_conf.c ****   switch (hal_status)
  33              		.loc 1 628 3 view .LVU2
  34 0000 0228     		cmp	r0, #2
  35 0002 04D0     		beq	.L3
  36 0004 05D8     		bhi	.L4
  37 0006 0028     		cmp	r0, #0
  38 0008 00D0     		beq	.L2
 629:USB_DEVICE/Target/usbd_conf.c ****   {
 630:USB_DEVICE/Target/usbd_conf.c ****     case HAL_OK :
 631:USB_DEVICE/Target/usbd_conf.c ****       usb_status = USBD_OK;
 632:USB_DEVICE/Target/usbd_conf.c ****     break;
 633:USB_DEVICE/Target/usbd_conf.c ****     case HAL_ERROR :
 634:USB_DEVICE/Target/usbd_conf.c ****       usb_status = USBD_FAIL;
  39              		.loc 1 634 18 is_stmt 0 view .LVU3
  40 000a 0220     		movs	r0, #2
  41              	.LVL1:
  42              	.L2:
 635:USB_DEVICE/Target/usbd_conf.c ****     break;
 636:USB_DEVICE/Target/usbd_conf.c ****     case HAL_BUSY :
 637:USB_DEVICE/Target/usbd_conf.c ****       usb_status = USBD_BUSY;
 638:USB_DEVICE/Target/usbd_conf.c ****     break;
 639:USB_DEVICE/Target/usbd_conf.c ****     case HAL_TIMEOUT :
 640:USB_DEVICE/Target/usbd_conf.c ****       usb_status = USBD_FAIL;
 641:USB_DEVICE/Target/usbd_conf.c ****     break;
 642:USB_DEVICE/Target/usbd_conf.c ****     default :
 643:USB_DEVICE/Target/usbd_conf.c ****       usb_status = USBD_FAIL;
ARM GAS  /tmp/ccUhKUw1.s 			page 13


 644:USB_DEVICE/Target/usbd_conf.c ****     break;
 645:USB_DEVICE/Target/usbd_conf.c ****   }
 646:USB_DEVICE/Target/usbd_conf.c ****   return usb_status;
  43              		.loc 1 646 3 is_stmt 1 view .LVU4
 647:USB_DEVICE/Target/usbd_conf.c **** }
  44              		.loc 1 647 1 is_stmt 0 view .LVU5
  45              		@ sp needed
  46 000c 7047     		bx	lr
  47              	.LVL2:
  48              	.L3:
 637:USB_DEVICE/Target/usbd_conf.c ****     break;
  49              		.loc 1 637 18 view .LVU6
  50 000e 0120     		movs	r0, #1
  51              	.LVL3:
 637:USB_DEVICE/Target/usbd_conf.c ****     break;
  52              		.loc 1 637 18 view .LVU7
  53 0010 FCE7     		b	.L2
  54              	.LVL4:
  55              	.L4:
 640:USB_DEVICE/Target/usbd_conf.c ****     break;
  56              		.loc 1 640 18 view .LVU8
  57 0012 0220     		movs	r0, #2
  58              	.LVL5:
 640:USB_DEVICE/Target/usbd_conf.c ****     break;
  59              		.loc 1 640 18 view .LVU9
  60 0014 FAE7     		b	.L2
  61              		.cfi_endproc
  62              	.LFE74:
  64              		.section	.text.SystemClockConfig_Resume,"ax",%progbits
  65              		.align	1
  66              		.syntax unified
  67              		.code	16
  68              		.thumb_func
  69              		.fpu softvfp
  71              	SystemClockConfig_Resume:
  72              	.LFB73:
 614:USB_DEVICE/Target/usbd_conf.c ****   SystemClock_Config();
  73              		.loc 1 614 1 is_stmt 1 view -0
  74              		.cfi_startproc
  75              		@ args = 0, pretend = 0, frame = 0
  76              		@ frame_needed = 0, uses_anonymous_args = 0
  77 0000 10B5     		push	{r4, lr}
  78              	.LCFI0:
  79              		.cfi_def_cfa_offset 8
  80              		.cfi_offset 4, -8
  81              		.cfi_offset 14, -4
 615:USB_DEVICE/Target/usbd_conf.c **** }
  82              		.loc 1 615 3 view .LVU11
  83 0002 FFF7FEFF 		bl	SystemClock_Config
  84              	.LVL6:
 616:USB_DEVICE/Target/usbd_conf.c **** /* USER CODE END 5 */
  85              		.loc 1 616 1 is_stmt 0 view .LVU12
  86              		@ sp needed
  87 0006 10BD     		pop	{r4, pc}
  88              		.cfi_endproc
  89              	.LFE73:
  91              		.section	.text.HAL_PCD_MspInit,"ax",%progbits
ARM GAS  /tmp/ccUhKUw1.s 			page 14


  92              		.align	1
  93              		.global	HAL_PCD_MspInit
  94              		.syntax unified
  95              		.code	16
  96              		.thumb_func
  97              		.fpu softvfp
  99              	HAL_PCD_MspInit:
 100              	.LVL7:
 101              	.LFB43:
  67:USB_DEVICE/Target/usbd_conf.c ****   if(pcdHandle->Instance==USB)
 102              		.loc 1 67 1 is_stmt 1 view -0
 103              		.cfi_startproc
 104              		@ args = 0, pretend = 0, frame = 8
 105              		@ frame_needed = 0, uses_anonymous_args = 0
  67:USB_DEVICE/Target/usbd_conf.c ****   if(pcdHandle->Instance==USB)
 106              		.loc 1 67 1 is_stmt 0 view .LVU14
 107 0000 00B5     		push	{lr}
 108              	.LCFI1:
 109              		.cfi_def_cfa_offset 4
 110              		.cfi_offset 14, -4
 111 0002 83B0     		sub	sp, sp, #12
 112              	.LCFI2:
 113              		.cfi_def_cfa_offset 16
  68:USB_DEVICE/Target/usbd_conf.c ****   {
 114              		.loc 1 68 3 is_stmt 1 view .LVU15
  68:USB_DEVICE/Target/usbd_conf.c ****   {
 115              		.loc 1 68 15 is_stmt 0 view .LVU16
 116 0004 0268     		ldr	r2, [r0]
  68:USB_DEVICE/Target/usbd_conf.c ****   {
 117              		.loc 1 68 5 view .LVU17
 118 0006 0C4B     		ldr	r3, .L10
 119 0008 9A42     		cmp	r2, r3
 120 000a 01D0     		beq	.L9
 121              	.LVL8:
 122              	.L7:
  83:USB_DEVICE/Target/usbd_conf.c **** 
 123              		.loc 1 83 1 view .LVU18
 124 000c 03B0     		add	sp, sp, #12
 125              		@ sp needed
 126 000e 00BD     		pop	{pc}
 127              	.LVL9:
 128              	.L9:
  74:USB_DEVICE/Target/usbd_conf.c **** 
 129              		.loc 1 74 5 is_stmt 1 view .LVU19
 130              	.LBB2:
  74:USB_DEVICE/Target/usbd_conf.c **** 
 131              		.loc 1 74 5 view .LVU20
  74:USB_DEVICE/Target/usbd_conf.c **** 
 132              		.loc 1 74 5 view .LVU21
 133 0010 0A4A     		ldr	r2, .L10+4
 134 0012 D169     		ldr	r1, [r2, #28]
 135 0014 8020     		movs	r0, #128
 136              	.LVL10:
  74:USB_DEVICE/Target/usbd_conf.c **** 
 137              		.loc 1 74 5 is_stmt 0 view .LVU22
 138 0016 0004     		lsls	r0, r0, #16
 139 0018 0143     		orrs	r1, r0
ARM GAS  /tmp/ccUhKUw1.s 			page 15


 140 001a D161     		str	r1, [r2, #28]
  74:USB_DEVICE/Target/usbd_conf.c **** 
 141              		.loc 1 74 5 is_stmt 1 view .LVU23
 142 001c D369     		ldr	r3, [r2, #28]
 143 001e 0340     		ands	r3, r0
 144 0020 0193     		str	r3, [sp, #4]
  74:USB_DEVICE/Target/usbd_conf.c **** 
 145              		.loc 1 74 5 view .LVU24
 146 0022 019B     		ldr	r3, [sp, #4]
 147              	.LBE2:
  74:USB_DEVICE/Target/usbd_conf.c **** 
 148              		.loc 1 74 5 view .LVU25
  77:USB_DEVICE/Target/usbd_conf.c ****     HAL_NVIC_EnableIRQ(USB_IRQn);
 149              		.loc 1 77 5 view .LVU26
 150 0024 0022     		movs	r2, #0
 151 0026 0021     		movs	r1, #0
 152 0028 1F20     		movs	r0, #31
 153 002a FFF7FEFF 		bl	HAL_NVIC_SetPriority
 154              	.LVL11:
  78:USB_DEVICE/Target/usbd_conf.c ****   /* USER CODE BEGIN USB_MspInit 1 */
 155              		.loc 1 78 5 view .LVU27
 156 002e 1F20     		movs	r0, #31
 157 0030 FFF7FEFF 		bl	HAL_NVIC_EnableIRQ
 158              	.LVL12:
  83:USB_DEVICE/Target/usbd_conf.c **** 
 159              		.loc 1 83 1 is_stmt 0 view .LVU28
 160 0034 EAE7     		b	.L7
 161              	.L11:
 162 0036 C046     		.align	2
 163              	.L10:
 164 0038 005C0040 		.word	1073765376
 165 003c 00100240 		.word	1073876992
 166              		.cfi_endproc
 167              	.LFE43:
 169              		.section	.text.HAL_PCD_MspDeInit,"ax",%progbits
 170              		.align	1
 171              		.global	HAL_PCD_MspDeInit
 172              		.syntax unified
 173              		.code	16
 174              		.thumb_func
 175              		.fpu softvfp
 177              	HAL_PCD_MspDeInit:
 178              	.LVL13:
 179              	.LFB44:
  86:USB_DEVICE/Target/usbd_conf.c ****   if(pcdHandle->Instance==USB)
 180              		.loc 1 86 1 is_stmt 1 view -0
 181              		.cfi_startproc
 182              		@ args = 0, pretend = 0, frame = 0
 183              		@ frame_needed = 0, uses_anonymous_args = 0
  86:USB_DEVICE/Target/usbd_conf.c ****   if(pcdHandle->Instance==USB)
 184              		.loc 1 86 1 is_stmt 0 view .LVU30
 185 0000 10B5     		push	{r4, lr}
 186              	.LCFI3:
 187              		.cfi_def_cfa_offset 8
 188              		.cfi_offset 4, -8
 189              		.cfi_offset 14, -4
  87:USB_DEVICE/Target/usbd_conf.c ****   {
ARM GAS  /tmp/ccUhKUw1.s 			page 16


 190              		.loc 1 87 3 is_stmt 1 view .LVU31
  87:USB_DEVICE/Target/usbd_conf.c ****   {
 191              		.loc 1 87 15 is_stmt 0 view .LVU32
 192 0002 0268     		ldr	r2, [r0]
  87:USB_DEVICE/Target/usbd_conf.c ****   {
 193              		.loc 1 87 5 view .LVU33
 194 0004 064B     		ldr	r3, .L15
 195 0006 9A42     		cmp	r2, r3
 196 0008 00D0     		beq	.L14
 197              	.LVL14:
 198              	.L12:
 102:USB_DEVICE/Target/usbd_conf.c **** 
 199              		.loc 1 102 1 view .LVU34
 200              		@ sp needed
 201 000a 10BD     		pop	{r4, pc}
 202              	.LVL15:
 203              	.L14:
  93:USB_DEVICE/Target/usbd_conf.c **** 
 204              		.loc 1 93 5 is_stmt 1 view .LVU35
 205 000c 054A     		ldr	r2, .L15+4
 206 000e D369     		ldr	r3, [r2, #28]
 207 0010 0549     		ldr	r1, .L15+8
 208 0012 0B40     		ands	r3, r1
 209 0014 D361     		str	r3, [r2, #28]
  96:USB_DEVICE/Target/usbd_conf.c **** 
 210              		.loc 1 96 5 view .LVU36
 211 0016 1F20     		movs	r0, #31
 212              	.LVL16:
  96:USB_DEVICE/Target/usbd_conf.c **** 
 213              		.loc 1 96 5 is_stmt 0 view .LVU37
 214 0018 FFF7FEFF 		bl	HAL_NVIC_DisableIRQ
 215              	.LVL17:
 102:USB_DEVICE/Target/usbd_conf.c **** 
 216              		.loc 1 102 1 view .LVU38
 217 001c F5E7     		b	.L12
 218              	.L16:
 219 001e C046     		.align	2
 220              	.L15:
 221 0020 005C0040 		.word	1073765376
 222 0024 00100240 		.word	1073876992
 223 0028 FFFF7FFF 		.word	-8388609
 224              		.cfi_endproc
 225              	.LFE44:
 227              		.section	.text.HAL_PCD_SetupStageCallback,"ax",%progbits
 228              		.align	1
 229              		.global	HAL_PCD_SetupStageCallback
 230              		.syntax unified
 231              		.code	16
 232              		.thumb_func
 233              		.fpu softvfp
 235              	HAL_PCD_SetupStageCallback:
 236              	.LVL18:
 237              	.LFB45:
 114:USB_DEVICE/Target/usbd_conf.c ****   USBD_LL_SetupStage((USBD_HandleTypeDef*)hpcd->pData, (uint8_t *)hpcd->Setup);
 238              		.loc 1 114 1 is_stmt 1 view -0
 239              		.cfi_startproc
 240              		@ args = 0, pretend = 0, frame = 0
ARM GAS  /tmp/ccUhKUw1.s 			page 17


 241              		@ frame_needed = 0, uses_anonymous_args = 0
 114:USB_DEVICE/Target/usbd_conf.c ****   USBD_LL_SetupStage((USBD_HandleTypeDef*)hpcd->pData, (uint8_t *)hpcd->Setup);
 242              		.loc 1 114 1 is_stmt 0 view .LVU40
 243 0000 10B5     		push	{r4, lr}
 244              	.LCFI4:
 245              		.cfi_def_cfa_offset 8
 246              		.cfi_offset 4, -8
 247              		.cfi_offset 14, -4
 248 0002 0100     		movs	r1, r0
 115:USB_DEVICE/Target/usbd_conf.c **** }
 249              		.loc 1 115 3 is_stmt 1 view .LVU41
 115:USB_DEVICE/Target/usbd_conf.c **** }
 250              		.loc 1 115 47 is_stmt 0 view .LVU42
 251 0004 BC23     		movs	r3, #188
 252 0006 9B00     		lsls	r3, r3, #2
 253 0008 C058     		ldr	r0, [r0, r3]
 254              	.LVL19:
 115:USB_DEVICE/Target/usbd_conf.c **** }
 255              		.loc 1 115 67 view .LVU43
 256 000a 403B     		subs	r3, r3, #64
 257 000c 9C46     		mov	ip, r3
 258 000e 6144     		add	r1, r1, ip
 259              	.LVL20:
 115:USB_DEVICE/Target/usbd_conf.c **** }
 260              		.loc 1 115 3 view .LVU44
 261 0010 FFF7FEFF 		bl	USBD_LL_SetupStage
 262              	.LVL21:
 116:USB_DEVICE/Target/usbd_conf.c **** 
 263              		.loc 1 116 1 view .LVU45
 264              		@ sp needed
 265 0014 10BD     		pop	{r4, pc}
 266              		.cfi_endproc
 267              	.LFE45:
 269              		.section	.text.HAL_PCD_DataOutStageCallback,"ax",%progbits
 270              		.align	1
 271              		.global	HAL_PCD_DataOutStageCallback
 272              		.syntax unified
 273              		.code	16
 274              		.thumb_func
 275              		.fpu softvfp
 277              	HAL_PCD_DataOutStageCallback:
 278              	.LVL22:
 279              	.LFB46:
 129:USB_DEVICE/Target/usbd_conf.c ****   USBD_LL_DataOutStage((USBD_HandleTypeDef*)hpcd->pData, epnum, hpcd->OUT_ep[epnum].xfer_buff);
 280              		.loc 1 129 1 is_stmt 1 view -0
 281              		.cfi_startproc
 282              		@ args = 0, pretend = 0, frame = 0
 283              		@ frame_needed = 0, uses_anonymous_args = 0
 129:USB_DEVICE/Target/usbd_conf.c ****   USBD_LL_DataOutStage((USBD_HandleTypeDef*)hpcd->pData, epnum, hpcd->OUT_ep[epnum].xfer_buff);
 284              		.loc 1 129 1 is_stmt 0 view .LVU47
 285 0000 10B5     		push	{r4, lr}
 286              	.LCFI5:
 287              		.cfi_def_cfa_offset 8
 288              		.cfi_offset 4, -8
 289              		.cfi_offset 14, -4
 290 0002 0300     		movs	r3, r0
 130:USB_DEVICE/Target/usbd_conf.c **** }
ARM GAS  /tmp/ccUhKUw1.s 			page 18


 291              		.loc 1 130 3 is_stmt 1 view .LVU48
 130:USB_DEVICE/Target/usbd_conf.c **** }
 292              		.loc 1 130 49 is_stmt 0 view .LVU49
 293 0004 BC22     		movs	r2, #188
 294 0006 9200     		lsls	r2, r2, #2
 295 0008 8058     		ldr	r0, [r0, r2]
 296              	.LVL23:
 130:USB_DEVICE/Target/usbd_conf.c **** }
 297              		.loc 1 130 3 view .LVU50
 298 000a 8A00     		lsls	r2, r1, #2
 299 000c 5218     		adds	r2, r2, r1
 300 000e D200     		lsls	r2, r2, #3
 301 0010 9B18     		adds	r3, r3, r2
 302              	.LVL24:
 130:USB_DEVICE/Target/usbd_conf.c **** }
 303              		.loc 1 130 3 view .LVU51
 304 0012 7D33     		adds	r3, r3, #125
 305 0014 FF33     		adds	r3, r3, #255
 306 0016 1A68     		ldr	r2, [r3]
 307 0018 FFF7FEFF 		bl	USBD_LL_DataOutStage
 308              	.LVL25:
 131:USB_DEVICE/Target/usbd_conf.c **** 
 309              		.loc 1 131 1 view .LVU52
 310              		@ sp needed
 311 001c 10BD     		pop	{r4, pc}
 312              		.cfi_endproc
 313              	.LFE46:
 315              		.section	.text.HAL_PCD_DataInStageCallback,"ax",%progbits
 316              		.align	1
 317              		.global	HAL_PCD_DataInStageCallback
 318              		.syntax unified
 319              		.code	16
 320              		.thumb_func
 321              		.fpu softvfp
 323              	HAL_PCD_DataInStageCallback:
 324              	.LVL26:
 325              	.LFB47:
 144:USB_DEVICE/Target/usbd_conf.c ****   USBD_LL_DataInStage((USBD_HandleTypeDef*)hpcd->pData, epnum, hpcd->IN_ep[epnum].xfer_buff);
 326              		.loc 1 144 1 is_stmt 1 view -0
 327              		.cfi_startproc
 328              		@ args = 0, pretend = 0, frame = 0
 329              		@ frame_needed = 0, uses_anonymous_args = 0
 144:USB_DEVICE/Target/usbd_conf.c ****   USBD_LL_DataInStage((USBD_HandleTypeDef*)hpcd->pData, epnum, hpcd->IN_ep[epnum].xfer_buff);
 330              		.loc 1 144 1 is_stmt 0 view .LVU54
 331 0000 10B5     		push	{r4, lr}
 332              	.LCFI6:
 333              		.cfi_def_cfa_offset 8
 334              		.cfi_offset 4, -8
 335              		.cfi_offset 14, -4
 336 0002 0300     		movs	r3, r0
 145:USB_DEVICE/Target/usbd_conf.c **** }
 337              		.loc 1 145 3 is_stmt 1 view .LVU55
 145:USB_DEVICE/Target/usbd_conf.c **** }
 338              		.loc 1 145 48 is_stmt 0 view .LVU56
 339 0004 BC22     		movs	r2, #188
 340 0006 9200     		lsls	r2, r2, #2
 341 0008 8058     		ldr	r0, [r0, r2]
ARM GAS  /tmp/ccUhKUw1.s 			page 19


 342              	.LVL27:
 145:USB_DEVICE/Target/usbd_conf.c **** }
 343              		.loc 1 145 3 view .LVU57
 344 000a 8A00     		lsls	r2, r1, #2
 345 000c 5218     		adds	r2, r2, r1
 346 000e D200     		lsls	r2, r2, #3
 347 0010 9B18     		adds	r3, r3, r2
 348              	.LVL28:
 145:USB_DEVICE/Target/usbd_conf.c **** }
 349              		.loc 1 145 3 view .LVU58
 350 0012 DA6B     		ldr	r2, [r3, #60]
 351 0014 FFF7FEFF 		bl	USBD_LL_DataInStage
 352              	.LVL29:
 146:USB_DEVICE/Target/usbd_conf.c **** 
 353              		.loc 1 146 1 view .LVU59
 354              		@ sp needed
 355 0018 10BD     		pop	{r4, pc}
 356              		.cfi_endproc
 357              	.LFE47:
 359              		.section	.text.HAL_PCD_SOFCallback,"ax",%progbits
 360              		.align	1
 361              		.global	HAL_PCD_SOFCallback
 362              		.syntax unified
 363              		.code	16
 364              		.thumb_func
 365              		.fpu softvfp
 367              	HAL_PCD_SOFCallback:
 368              	.LVL30:
 369              	.LFB48:
 158:USB_DEVICE/Target/usbd_conf.c ****   USBD_LL_SOF((USBD_HandleTypeDef*)hpcd->pData);
 370              		.loc 1 158 1 is_stmt 1 view -0
 371              		.cfi_startproc
 372              		@ args = 0, pretend = 0, frame = 0
 373              		@ frame_needed = 0, uses_anonymous_args = 0
 158:USB_DEVICE/Target/usbd_conf.c ****   USBD_LL_SOF((USBD_HandleTypeDef*)hpcd->pData);
 374              		.loc 1 158 1 is_stmt 0 view .LVU61
 375 0000 10B5     		push	{r4, lr}
 376              	.LCFI7:
 377              		.cfi_def_cfa_offset 8
 378              		.cfi_offset 4, -8
 379              		.cfi_offset 14, -4
 159:USB_DEVICE/Target/usbd_conf.c **** }
 380              		.loc 1 159 3 is_stmt 1 view .LVU62
 159:USB_DEVICE/Target/usbd_conf.c **** }
 381              		.loc 1 159 40 is_stmt 0 view .LVU63
 382 0002 BC23     		movs	r3, #188
 383 0004 9B00     		lsls	r3, r3, #2
 384 0006 C058     		ldr	r0, [r0, r3]
 385              	.LVL31:
 159:USB_DEVICE/Target/usbd_conf.c **** }
 386              		.loc 1 159 3 view .LVU64
 387 0008 FFF7FEFF 		bl	USBD_LL_SOF
 388              	.LVL32:
 160:USB_DEVICE/Target/usbd_conf.c **** 
 389              		.loc 1 160 1 view .LVU65
 390              		@ sp needed
 391 000c 10BD     		pop	{r4, pc}
ARM GAS  /tmp/ccUhKUw1.s 			page 20


 392              		.cfi_endproc
 393              	.LFE48:
 395              		.section	.text.HAL_PCD_ResetCallback,"ax",%progbits
 396              		.align	1
 397              		.global	HAL_PCD_ResetCallback
 398              		.syntax unified
 399              		.code	16
 400              		.thumb_func
 401              		.fpu softvfp
 403              	HAL_PCD_ResetCallback:
 404              	.LVL33:
 405              	.LFB49:
 172:USB_DEVICE/Target/usbd_conf.c ****   USBD_SpeedTypeDef speed = USBD_SPEED_FULL;
 406              		.loc 1 172 1 is_stmt 1 view -0
 407              		.cfi_startproc
 408              		@ args = 0, pretend = 0, frame = 0
 409              		@ frame_needed = 0, uses_anonymous_args = 0
 172:USB_DEVICE/Target/usbd_conf.c ****   USBD_SpeedTypeDef speed = USBD_SPEED_FULL;
 410              		.loc 1 172 1 is_stmt 0 view .LVU67
 411 0000 70B5     		push	{r4, r5, r6, lr}
 412              	.LCFI8:
 413              		.cfi_def_cfa_offset 16
 414              		.cfi_offset 4, -16
 415              		.cfi_offset 5, -12
 416              		.cfi_offset 6, -8
 417              		.cfi_offset 14, -4
 418 0002 0400     		movs	r4, r0
 173:USB_DEVICE/Target/usbd_conf.c **** 
 419              		.loc 1 173 3 is_stmt 1 view .LVU68
 420              	.LVL34:
 175:USB_DEVICE/Target/usbd_conf.c ****   {
 421              		.loc 1 175 3 view .LVU69
 175:USB_DEVICE/Target/usbd_conf.c ****   {
 422              		.loc 1 175 6 is_stmt 0 view .LVU70
 423 0004 8368     		ldr	r3, [r0, #8]
 424 0006 022B     		cmp	r3, #2
 425 0008 09D1     		bne	.L23
 426              	.LVL35:
 427              	.L22:
 180:USB_DEVICE/Target/usbd_conf.c **** 
 428              		.loc 1 180 3 is_stmt 1 view .LVU71
 180:USB_DEVICE/Target/usbd_conf.c **** 
 429              		.loc 1 180 45 is_stmt 0 view .LVU72
 430 000a BC25     		movs	r5, #188
 431 000c AD00     		lsls	r5, r5, #2
 180:USB_DEVICE/Target/usbd_conf.c **** 
 432              		.loc 1 180 3 view .LVU73
 433 000e 0121     		movs	r1, #1
 434 0010 6059     		ldr	r0, [r4, r5]
 435 0012 FFF7FEFF 		bl	USBD_LL_SetSpeed
 436              	.LVL36:
 183:USB_DEVICE/Target/usbd_conf.c **** }
 437              		.loc 1 183 3 is_stmt 1 view .LVU74
 183:USB_DEVICE/Target/usbd_conf.c **** }
 438              		.loc 1 183 42 is_stmt 0 view .LVU75
 439 0016 6059     		ldr	r0, [r4, r5]
 183:USB_DEVICE/Target/usbd_conf.c **** }
ARM GAS  /tmp/ccUhKUw1.s 			page 21


 440              		.loc 1 183 3 view .LVU76
 441 0018 FFF7FEFF 		bl	USBD_LL_Reset
 442              	.LVL37:
 184:USB_DEVICE/Target/usbd_conf.c **** 
 443              		.loc 1 184 1 view .LVU77
 444              		@ sp needed
 445              	.LVL38:
 184:USB_DEVICE/Target/usbd_conf.c **** 
 446              		.loc 1 184 1 view .LVU78
 447 001c 70BD     		pop	{r4, r5, r6, pc}
 448              	.LVL39:
 449              	.L23:
 177:USB_DEVICE/Target/usbd_conf.c ****   }
 450              		.loc 1 177 5 is_stmt 1 view .LVU79
 451 001e FFF7FEFF 		bl	Error_Handler
 452              	.LVL40:
 177:USB_DEVICE/Target/usbd_conf.c ****   }
 453              		.loc 1 177 5 is_stmt 0 view .LVU80
 454 0022 F2E7     		b	.L22
 455              		.cfi_endproc
 456              	.LFE49:
 458              		.section	.text.HAL_PCD_SuspendCallback,"ax",%progbits
 459              		.align	1
 460              		.global	HAL_PCD_SuspendCallback
 461              		.syntax unified
 462              		.code	16
 463              		.thumb_func
 464              		.fpu softvfp
 466              	HAL_PCD_SuspendCallback:
 467              	.LVL41:
 468              	.LFB50:
 197:USB_DEVICE/Target/usbd_conf.c ****   /* Inform USB library that core enters in suspend Mode. */
 469              		.loc 1 197 1 is_stmt 1 view -0
 470              		.cfi_startproc
 471              		@ args = 0, pretend = 0, frame = 0
 472              		@ frame_needed = 0, uses_anonymous_args = 0
 197:USB_DEVICE/Target/usbd_conf.c ****   /* Inform USB library that core enters in suspend Mode. */
 473              		.loc 1 197 1 is_stmt 0 view .LVU82
 474 0000 10B5     		push	{r4, lr}
 475              	.LCFI9:
 476              		.cfi_def_cfa_offset 8
 477              		.cfi_offset 4, -8
 478              		.cfi_offset 14, -4
 479 0002 0400     		movs	r4, r0
 199:USB_DEVICE/Target/usbd_conf.c ****   /* Enter in STOP mode. */
 480              		.loc 1 199 3 is_stmt 1 view .LVU83
 199:USB_DEVICE/Target/usbd_conf.c ****   /* Enter in STOP mode. */
 481              		.loc 1 199 44 is_stmt 0 view .LVU84
 482 0004 BC23     		movs	r3, #188
 483 0006 9B00     		lsls	r3, r3, #2
 484 0008 C058     		ldr	r0, [r0, r3]
 485              	.LVL42:
 199:USB_DEVICE/Target/usbd_conf.c ****   /* Enter in STOP mode. */
 486              		.loc 1 199 3 view .LVU85
 487 000a FFF7FEFF 		bl	USBD_LL_Suspend
 488              	.LVL43:
 202:USB_DEVICE/Target/usbd_conf.c ****   {
ARM GAS  /tmp/ccUhKUw1.s 			page 22


 489              		.loc 1 202 3 is_stmt 1 view .LVU86
 202:USB_DEVICE/Target/usbd_conf.c ****   {
 490              		.loc 1 202 17 is_stmt 0 view .LVU87
 491 000e A369     		ldr	r3, [r4, #24]
 202:USB_DEVICE/Target/usbd_conf.c ****   {
 492              		.loc 1 202 6 view .LVU88
 493 0010 002B     		cmp	r3, #0
 494 0012 04D0     		beq	.L24
 205:USB_DEVICE/Target/usbd_conf.c ****   }
 495              		.loc 1 205 5 is_stmt 1 view .LVU89
 205:USB_DEVICE/Target/usbd_conf.c ****   }
 496              		.loc 1 205 14 is_stmt 0 view .LVU90
 497 0014 024A     		ldr	r2, .L26
 498 0016 1369     		ldr	r3, [r2, #16]
 499 0018 0621     		movs	r1, #6
 500 001a 0B43     		orrs	r3, r1
 501 001c 1361     		str	r3, [r2, #16]
 502              	.L24:
 208:USB_DEVICE/Target/usbd_conf.c **** 
 503              		.loc 1 208 1 view .LVU91
 504              		@ sp needed
 505              	.LVL44:
 208:USB_DEVICE/Target/usbd_conf.c **** 
 506              		.loc 1 208 1 view .LVU92
 507 001e 10BD     		pop	{r4, pc}
 508              	.L27:
 509              		.align	2
 510              	.L26:
 511 0020 00ED00E0 		.word	-536810240
 512              		.cfi_endproc
 513              	.LFE50:
 515              		.section	.text.HAL_PCD_ResumeCallback,"ax",%progbits
 516              		.align	1
 517              		.global	HAL_PCD_ResumeCallback
 518              		.syntax unified
 519              		.code	16
 520              		.thumb_func
 521              		.fpu softvfp
 523              	HAL_PCD_ResumeCallback:
 524              	.LVL45:
 525              	.LFB51:
 221:USB_DEVICE/Target/usbd_conf.c ****   /* USER CODE BEGIN 3 */
 526              		.loc 1 221 1 is_stmt 1 view -0
 527              		.cfi_startproc
 528              		@ args = 0, pretend = 0, frame = 0
 529              		@ frame_needed = 0, uses_anonymous_args = 0
 221:USB_DEVICE/Target/usbd_conf.c ****   /* USER CODE BEGIN 3 */
 530              		.loc 1 221 1 is_stmt 0 view .LVU94
 531 0000 10B5     		push	{r4, lr}
 532              	.LCFI10:
 533              		.cfi_def_cfa_offset 8
 534              		.cfi_offset 4, -8
 535              		.cfi_offset 14, -4
 536 0002 0400     		movs	r4, r0
 223:USB_DEVICE/Target/usbd_conf.c ****   {
 537              		.loc 1 223 3 is_stmt 1 view .LVU95
 223:USB_DEVICE/Target/usbd_conf.c ****   {
ARM GAS  /tmp/ccUhKUw1.s 			page 23


 538              		.loc 1 223 6 is_stmt 0 view .LVU96
 539 0004 8369     		ldr	r3, [r0, #24]
 540 0006 002B     		cmp	r3, #0
 541 0008 05D1     		bne	.L30
 542              	.LVL46:
 543              	.L29:
 230:USB_DEVICE/Target/usbd_conf.c **** }
 544              		.loc 1 230 3 is_stmt 1 view .LVU97
 230:USB_DEVICE/Target/usbd_conf.c **** }
 545              		.loc 1 230 43 is_stmt 0 view .LVU98
 546 000a BC23     		movs	r3, #188
 547 000c 9B00     		lsls	r3, r3, #2
 548 000e E058     		ldr	r0, [r4, r3]
 230:USB_DEVICE/Target/usbd_conf.c **** }
 549              		.loc 1 230 3 view .LVU99
 550 0010 FFF7FEFF 		bl	USBD_LL_Resume
 551              	.LVL47:
 231:USB_DEVICE/Target/usbd_conf.c **** 
 552              		.loc 1 231 1 view .LVU100
 553              		@ sp needed
 554              	.LVL48:
 231:USB_DEVICE/Target/usbd_conf.c **** 
 555              		.loc 1 231 1 view .LVU101
 556 0014 10BD     		pop	{r4, pc}
 557              	.LVL49:
 558              	.L30:
 226:USB_DEVICE/Target/usbd_conf.c ****     SystemClockConfig_Resume();
 559              		.loc 1 226 5 is_stmt 1 view .LVU102
 226:USB_DEVICE/Target/usbd_conf.c ****     SystemClockConfig_Resume();
 560              		.loc 1 226 14 is_stmt 0 view .LVU103
 561 0016 044A     		ldr	r2, .L31
 562 0018 1369     		ldr	r3, [r2, #16]
 563 001a 0621     		movs	r1, #6
 564 001c 8B43     		bics	r3, r1
 565 001e 1361     		str	r3, [r2, #16]
 227:USB_DEVICE/Target/usbd_conf.c ****   }
 566              		.loc 1 227 5 is_stmt 1 view .LVU104
 567 0020 FFF7FEFF 		bl	SystemClockConfig_Resume
 568              	.LVL50:
 227:USB_DEVICE/Target/usbd_conf.c ****   }
 569              		.loc 1 227 5 is_stmt 0 view .LVU105
 570 0024 F1E7     		b	.L29
 571              	.L32:
 572 0026 C046     		.align	2
 573              	.L31:
 574 0028 00ED00E0 		.word	-536810240
 575              		.cfi_endproc
 576              	.LFE51:
 578              		.section	.text.HAL_PCD_ISOOUTIncompleteCallback,"ax",%progbits
 579              		.align	1
 580              		.global	HAL_PCD_ISOOUTIncompleteCallback
 581              		.syntax unified
 582              		.code	16
 583              		.thumb_func
 584              		.fpu softvfp
 586              	HAL_PCD_ISOOUTIncompleteCallback:
 587              	.LVL51:
ARM GAS  /tmp/ccUhKUw1.s 			page 24


 588              	.LFB52:
 244:USB_DEVICE/Target/usbd_conf.c ****   USBD_LL_IsoOUTIncomplete((USBD_HandleTypeDef*)hpcd->pData, epnum);
 589              		.loc 1 244 1 is_stmt 1 view -0
 590              		.cfi_startproc
 591              		@ args = 0, pretend = 0, frame = 0
 592              		@ frame_needed = 0, uses_anonymous_args = 0
 244:USB_DEVICE/Target/usbd_conf.c ****   USBD_LL_IsoOUTIncomplete((USBD_HandleTypeDef*)hpcd->pData, epnum);
 593              		.loc 1 244 1 is_stmt 0 view .LVU107
 594 0000 10B5     		push	{r4, lr}
 595              	.LCFI11:
 596              		.cfi_def_cfa_offset 8
 597              		.cfi_offset 4, -8
 598              		.cfi_offset 14, -4
 245:USB_DEVICE/Target/usbd_conf.c **** }
 599              		.loc 1 245 3 is_stmt 1 view .LVU108
 245:USB_DEVICE/Target/usbd_conf.c **** }
 600              		.loc 1 245 53 is_stmt 0 view .LVU109
 601 0002 BC23     		movs	r3, #188
 602 0004 9B00     		lsls	r3, r3, #2
 603 0006 C058     		ldr	r0, [r0, r3]
 604              	.LVL52:
 245:USB_DEVICE/Target/usbd_conf.c **** }
 605              		.loc 1 245 3 view .LVU110
 606 0008 FFF7FEFF 		bl	USBD_LL_IsoOUTIncomplete
 607              	.LVL53:
 246:USB_DEVICE/Target/usbd_conf.c **** 
 608              		.loc 1 246 1 view .LVU111
 609              		@ sp needed
 610 000c 10BD     		pop	{r4, pc}
 611              		.cfi_endproc
 612              	.LFE52:
 614              		.section	.text.HAL_PCD_ISOINIncompleteCallback,"ax",%progbits
 615              		.align	1
 616              		.global	HAL_PCD_ISOINIncompleteCallback
 617              		.syntax unified
 618              		.code	16
 619              		.thumb_func
 620              		.fpu softvfp
 622              	HAL_PCD_ISOINIncompleteCallback:
 623              	.LVL54:
 624              	.LFB53:
 259:USB_DEVICE/Target/usbd_conf.c ****   USBD_LL_IsoINIncomplete((USBD_HandleTypeDef*)hpcd->pData, epnum);
 625              		.loc 1 259 1 is_stmt 1 view -0
 626              		.cfi_startproc
 627              		@ args = 0, pretend = 0, frame = 0
 628              		@ frame_needed = 0, uses_anonymous_args = 0
 259:USB_DEVICE/Target/usbd_conf.c ****   USBD_LL_IsoINIncomplete((USBD_HandleTypeDef*)hpcd->pData, epnum);
 629              		.loc 1 259 1 is_stmt 0 view .LVU113
 630 0000 10B5     		push	{r4, lr}
 631              	.LCFI12:
 632              		.cfi_def_cfa_offset 8
 633              		.cfi_offset 4, -8
 634              		.cfi_offset 14, -4
 260:USB_DEVICE/Target/usbd_conf.c **** }
 635              		.loc 1 260 3 is_stmt 1 view .LVU114
 260:USB_DEVICE/Target/usbd_conf.c **** }
 636              		.loc 1 260 52 is_stmt 0 view .LVU115
ARM GAS  /tmp/ccUhKUw1.s 			page 25


 637 0002 BC23     		movs	r3, #188
 638 0004 9B00     		lsls	r3, r3, #2
 639 0006 C058     		ldr	r0, [r0, r3]
 640              	.LVL55:
 260:USB_DEVICE/Target/usbd_conf.c **** }
 641              		.loc 1 260 3 view .LVU116
 642 0008 FFF7FEFF 		bl	USBD_LL_IsoINIncomplete
 643              	.LVL56:
 261:USB_DEVICE/Target/usbd_conf.c **** 
 644              		.loc 1 261 1 view .LVU117
 645              		@ sp needed
 646 000c 10BD     		pop	{r4, pc}
 647              		.cfi_endproc
 648              	.LFE53:
 650              		.section	.text.HAL_PCD_ConnectCallback,"ax",%progbits
 651              		.align	1
 652              		.global	HAL_PCD_ConnectCallback
 653              		.syntax unified
 654              		.code	16
 655              		.thumb_func
 656              		.fpu softvfp
 658              	HAL_PCD_ConnectCallback:
 659              	.LVL57:
 660              	.LFB54:
 273:USB_DEVICE/Target/usbd_conf.c ****   USBD_LL_DevConnected((USBD_HandleTypeDef*)hpcd->pData);
 661              		.loc 1 273 1 is_stmt 1 view -0
 662              		.cfi_startproc
 663              		@ args = 0, pretend = 0, frame = 0
 664              		@ frame_needed = 0, uses_anonymous_args = 0
 273:USB_DEVICE/Target/usbd_conf.c ****   USBD_LL_DevConnected((USBD_HandleTypeDef*)hpcd->pData);
 665              		.loc 1 273 1 is_stmt 0 view .LVU119
 666 0000 10B5     		push	{r4, lr}
 667              	.LCFI13:
 668              		.cfi_def_cfa_offset 8
 669              		.cfi_offset 4, -8
 670              		.cfi_offset 14, -4
 274:USB_DEVICE/Target/usbd_conf.c **** }
 671              		.loc 1 274 3 is_stmt 1 view .LVU120
 274:USB_DEVICE/Target/usbd_conf.c **** }
 672              		.loc 1 274 49 is_stmt 0 view .LVU121
 673 0002 BC23     		movs	r3, #188
 674 0004 9B00     		lsls	r3, r3, #2
 675 0006 C058     		ldr	r0, [r0, r3]
 676              	.LVL58:
 274:USB_DEVICE/Target/usbd_conf.c **** }
 677              		.loc 1 274 3 view .LVU122
 678 0008 FFF7FEFF 		bl	USBD_LL_DevConnected
 679              	.LVL59:
 275:USB_DEVICE/Target/usbd_conf.c **** 
 680              		.loc 1 275 1 view .LVU123
 681              		@ sp needed
 682 000c 10BD     		pop	{r4, pc}
 683              		.cfi_endproc
 684              	.LFE54:
 686              		.section	.text.HAL_PCD_DisconnectCallback,"ax",%progbits
 687              		.align	1
 688              		.global	HAL_PCD_DisconnectCallback
ARM GAS  /tmp/ccUhKUw1.s 			page 26


 689              		.syntax unified
 690              		.code	16
 691              		.thumb_func
 692              		.fpu softvfp
 694              	HAL_PCD_DisconnectCallback:
 695              	.LVL60:
 696              	.LFB55:
 287:USB_DEVICE/Target/usbd_conf.c ****   USBD_LL_DevDisconnected((USBD_HandleTypeDef*)hpcd->pData);
 697              		.loc 1 287 1 is_stmt 1 view -0
 698              		.cfi_startproc
 699              		@ args = 0, pretend = 0, frame = 0
 700              		@ frame_needed = 0, uses_anonymous_args = 0
 287:USB_DEVICE/Target/usbd_conf.c ****   USBD_LL_DevDisconnected((USBD_HandleTypeDef*)hpcd->pData);
 701              		.loc 1 287 1 is_stmt 0 view .LVU125
 702 0000 10B5     		push	{r4, lr}
 703              	.LCFI14:
 704              		.cfi_def_cfa_offset 8
 705              		.cfi_offset 4, -8
 706              		.cfi_offset 14, -4
 288:USB_DEVICE/Target/usbd_conf.c **** }
 707              		.loc 1 288 3 is_stmt 1 view .LVU126
 288:USB_DEVICE/Target/usbd_conf.c **** }
 708              		.loc 1 288 52 is_stmt 0 view .LVU127
 709 0002 BC23     		movs	r3, #188
 710 0004 9B00     		lsls	r3, r3, #2
 711 0006 C058     		ldr	r0, [r0, r3]
 712              	.LVL61:
 288:USB_DEVICE/Target/usbd_conf.c **** }
 713              		.loc 1 288 3 view .LVU128
 714 0008 FFF7FEFF 		bl	USBD_LL_DevDisconnected
 715              	.LVL62:
 289:USB_DEVICE/Target/usbd_conf.c **** 
 716              		.loc 1 289 1 view .LVU129
 717              		@ sp needed
 718 000c 10BD     		pop	{r4, pc}
 719              		.cfi_endproc
 720              	.LFE55:
 722              		.section	.text.USBD_LL_Init,"ax",%progbits
 723              		.align	1
 724              		.global	USBD_LL_Init
 725              		.syntax unified
 726              		.code	16
 727              		.thumb_func
 728              		.fpu softvfp
 730              	USBD_LL_Init:
 731              	.LVL63:
 732              	.LFB56:
 301:USB_DEVICE/Target/usbd_conf.c ****   /* Init USB Ip. */
 733              		.loc 1 301 1 is_stmt 1 view -0
 734              		.cfi_startproc
 735              		@ args = 0, pretend = 0, frame = 0
 736              		@ frame_needed = 0, uses_anonymous_args = 0
 301:USB_DEVICE/Target/usbd_conf.c ****   /* Init USB Ip. */
 737              		.loc 1 301 1 is_stmt 0 view .LVU131
 738 0000 70B5     		push	{r4, r5, r6, lr}
 739              	.LCFI15:
 740              		.cfi_def_cfa_offset 16
ARM GAS  /tmp/ccUhKUw1.s 			page 27


 741              		.cfi_offset 4, -16
 742              		.cfi_offset 5, -12
 743              		.cfi_offset 6, -8
 744              		.cfi_offset 14, -4
 745 0002 0400     		movs	r4, r0
 304:USB_DEVICE/Target/usbd_conf.c ****   pdev->pData = &hpcd_USB_FS;
 746              		.loc 1 304 3 is_stmt 1 view .LVU132
 304:USB_DEVICE/Target/usbd_conf.c ****   pdev->pData = &hpcd_USB_FS;
 747              		.loc 1 304 21 is_stmt 0 view .LVU133
 748 0004 1748     		ldr	r0, .L40
 749              	.LVL64:
 304:USB_DEVICE/Target/usbd_conf.c ****   pdev->pData = &hpcd_USB_FS;
 750              		.loc 1 304 21 view .LVU134
 751 0006 BC23     		movs	r3, #188
 752 0008 9B00     		lsls	r3, r3, #2
 753 000a C450     		str	r4, [r0, r3]
 305:USB_DEVICE/Target/usbd_conf.c **** 
 754              		.loc 1 305 3 is_stmt 1 view .LVU135
 305:USB_DEVICE/Target/usbd_conf.c **** 
 755              		.loc 1 305 15 is_stmt 0 view .LVU136
 756 000c 303B     		subs	r3, r3, #48
 757 000e E050     		str	r0, [r4, r3]
 307:USB_DEVICE/Target/usbd_conf.c ****   hpcd_USB_FS.Init.dev_endpoints = 8;
 758              		.loc 1 307 3 is_stmt 1 view .LVU137
 307:USB_DEVICE/Target/usbd_conf.c ****   hpcd_USB_FS.Init.dev_endpoints = 8;
 759              		.loc 1 307 24 is_stmt 0 view .LVU138
 760 0010 154B     		ldr	r3, .L40+4
 761 0012 0360     		str	r3, [r0]
 308:USB_DEVICE/Target/usbd_conf.c ****   hpcd_USB_FS.Init.speed = PCD_SPEED_FULL;
 762              		.loc 1 308 3 is_stmt 1 view .LVU139
 308:USB_DEVICE/Target/usbd_conf.c ****   hpcd_USB_FS.Init.speed = PCD_SPEED_FULL;
 763              		.loc 1 308 34 is_stmt 0 view .LVU140
 764 0014 0823     		movs	r3, #8
 765 0016 4360     		str	r3, [r0, #4]
 309:USB_DEVICE/Target/usbd_conf.c ****   hpcd_USB_FS.Init.phy_itface = PCD_PHY_EMBEDDED;
 766              		.loc 1 309 3 is_stmt 1 view .LVU141
 309:USB_DEVICE/Target/usbd_conf.c ****   hpcd_USB_FS.Init.phy_itface = PCD_PHY_EMBEDDED;
 767              		.loc 1 309 26 is_stmt 0 view .LVU142
 768 0018 063B     		subs	r3, r3, #6
 769 001a 8360     		str	r3, [r0, #8]
 310:USB_DEVICE/Target/usbd_conf.c ****   hpcd_USB_FS.Init.low_power_enable = DISABLE;
 770              		.loc 1 310 3 is_stmt 1 view .LVU143
 310:USB_DEVICE/Target/usbd_conf.c ****   hpcd_USB_FS.Init.low_power_enable = DISABLE;
 771              		.loc 1 310 31 is_stmt 0 view .LVU144
 772 001c 0361     		str	r3, [r0, #16]
 311:USB_DEVICE/Target/usbd_conf.c ****   hpcd_USB_FS.Init.lpm_enable = DISABLE;
 773              		.loc 1 311 3 is_stmt 1 view .LVU145
 311:USB_DEVICE/Target/usbd_conf.c ****   hpcd_USB_FS.Init.lpm_enable = DISABLE;
 774              		.loc 1 311 37 is_stmt 0 view .LVU146
 775 001e 0023     		movs	r3, #0
 776 0020 8361     		str	r3, [r0, #24]
 312:USB_DEVICE/Target/usbd_conf.c ****   hpcd_USB_FS.Init.battery_charging_enable = DISABLE;
 777              		.loc 1 312 3 is_stmt 1 view .LVU147
 312:USB_DEVICE/Target/usbd_conf.c ****   hpcd_USB_FS.Init.battery_charging_enable = DISABLE;
 778              		.loc 1 312 31 is_stmt 0 view .LVU148
 779 0022 C361     		str	r3, [r0, #28]
 313:USB_DEVICE/Target/usbd_conf.c ****   if (HAL_PCD_Init(&hpcd_USB_FS) != HAL_OK)
ARM GAS  /tmp/ccUhKUw1.s 			page 28


 780              		.loc 1 313 3 is_stmt 1 view .LVU149
 313:USB_DEVICE/Target/usbd_conf.c ****   if (HAL_PCD_Init(&hpcd_USB_FS) != HAL_OK)
 781              		.loc 1 313 44 is_stmt 0 view .LVU150
 782 0024 0362     		str	r3, [r0, #32]
 314:USB_DEVICE/Target/usbd_conf.c ****   {
 783              		.loc 1 314 3 is_stmt 1 view .LVU151
 314:USB_DEVICE/Target/usbd_conf.c ****   {
 784              		.loc 1 314 7 is_stmt 0 view .LVU152
 785 0026 FFF7FEFF 		bl	HAL_PCD_Init
 786              	.LVL65:
 314:USB_DEVICE/Target/usbd_conf.c ****   {
 787              		.loc 1 314 6 view .LVU153
 788 002a 0028     		cmp	r0, #0
 789 002c 16D1     		bne	.L39
 790              	.L38:
 335:USB_DEVICE/Target/usbd_conf.c ****   HAL_PCDEx_PMAConfig((PCD_HandleTypeDef*)pdev->pData , 0x80 , PCD_SNG_BUF, 0x58);
 791              		.loc 1 335 3 is_stmt 1 view .LVU154
 335:USB_DEVICE/Target/usbd_conf.c ****   HAL_PCDEx_PMAConfig((PCD_HandleTypeDef*)pdev->pData , 0x80 , PCD_SNG_BUF, 0x58);
 792              		.loc 1 335 47 is_stmt 0 view .LVU155
 793 002e B025     		movs	r5, #176
 794 0030 AD00     		lsls	r5, r5, #2
 335:USB_DEVICE/Target/usbd_conf.c ****   HAL_PCDEx_PMAConfig((PCD_HandleTypeDef*)pdev->pData , 0x80 , PCD_SNG_BUF, 0x58);
 795              		.loc 1 335 3 view .LVU156
 796 0032 1823     		movs	r3, #24
 797 0034 0022     		movs	r2, #0
 798 0036 0021     		movs	r1, #0
 799 0038 6059     		ldr	r0, [r4, r5]
 800 003a FFF7FEFF 		bl	HAL_PCDEx_PMAConfig
 801              	.LVL66:
 336:USB_DEVICE/Target/usbd_conf.c ****   /* USER CODE END EndPoint_Configuration */
 802              		.loc 1 336 3 is_stmt 1 view .LVU157
 803 003e 5823     		movs	r3, #88
 804 0040 0022     		movs	r2, #0
 805 0042 8021     		movs	r1, #128
 806 0044 6059     		ldr	r0, [r4, r5]
 807 0046 FFF7FEFF 		bl	HAL_PCDEx_PMAConfig
 808              	.LVL67:
 339:USB_DEVICE/Target/usbd_conf.c ****   /* USER CODE END EndPoint_Configuration_HID */
 809              		.loc 1 339 3 view .LVU158
 339:USB_DEVICE/Target/usbd_conf.c ****   /* USER CODE END EndPoint_Configuration_HID */
 810              		.loc 1 339 47 is_stmt 0 view .LVU159
 811 004a 6059     		ldr	r0, [r4, r5]
 339:USB_DEVICE/Target/usbd_conf.c ****   /* USER CODE END EndPoint_Configuration_HID */
 812              		.loc 1 339 3 view .LVU160
 813 004c 8023     		movs	r3, #128
 814 004e 5B00     		lsls	r3, r3, #1
 815 0050 0022     		movs	r2, #0
 816 0052 8121     		movs	r1, #129
 817 0054 FFF7FEFF 		bl	HAL_PCDEx_PMAConfig
 818              	.LVL68:
 341:USB_DEVICE/Target/usbd_conf.c **** }
 819              		.loc 1 341 3 is_stmt 1 view .LVU161
 342:USB_DEVICE/Target/usbd_conf.c **** 
 820              		.loc 1 342 1 is_stmt 0 view .LVU162
 821 0058 0020     		movs	r0, #0
 822              		@ sp needed
 823              	.LVL69:
ARM GAS  /tmp/ccUhKUw1.s 			page 29


 342:USB_DEVICE/Target/usbd_conf.c **** 
 824              		.loc 1 342 1 view .LVU163
 825 005a 70BD     		pop	{r4, r5, r6, pc}
 826              	.LVL70:
 827              	.L39:
 316:USB_DEVICE/Target/usbd_conf.c ****   }
 828              		.loc 1 316 5 is_stmt 1 view .LVU164
 829 005c FFF7FEFF 		bl	Error_Handler
 830              	.LVL71:
 831 0060 E5E7     		b	.L38
 832              	.L41:
 833 0062 C046     		.align	2
 834              	.L40:
 835 0064 00000000 		.word	hpcd_USB_FS
 836 0068 005C0040 		.word	1073765376
 837              		.cfi_endproc
 838              	.LFE56:
 840              		.section	.text.USBD_LL_DeInit,"ax",%progbits
 841              		.align	1
 842              		.global	USBD_LL_DeInit
 843              		.syntax unified
 844              		.code	16
 845              		.thumb_func
 846              		.fpu softvfp
 848              	USBD_LL_DeInit:
 849              	.LVL72:
 850              	.LFB57:
 350:USB_DEVICE/Target/usbd_conf.c ****   HAL_StatusTypeDef hal_status = HAL_OK;
 851              		.loc 1 350 1 view -0
 852              		.cfi_startproc
 853              		@ args = 0, pretend = 0, frame = 0
 854              		@ frame_needed = 0, uses_anonymous_args = 0
 350:USB_DEVICE/Target/usbd_conf.c ****   HAL_StatusTypeDef hal_status = HAL_OK;
 855              		.loc 1 350 1 is_stmt 0 view .LVU166
 856 0000 10B5     		push	{r4, lr}
 857              	.LCFI16:
 858              		.cfi_def_cfa_offset 8
 859              		.cfi_offset 4, -8
 860              		.cfi_offset 14, -4
 351:USB_DEVICE/Target/usbd_conf.c ****   USBD_StatusTypeDef usb_status = USBD_OK;
 861              		.loc 1 351 3 is_stmt 1 view .LVU167
 862              	.LVL73:
 352:USB_DEVICE/Target/usbd_conf.c **** 
 863              		.loc 1 352 3 view .LVU168
 354:USB_DEVICE/Target/usbd_conf.c **** 
 864              		.loc 1 354 3 view .LVU169
 354:USB_DEVICE/Target/usbd_conf.c **** 
 865              		.loc 1 354 35 is_stmt 0 view .LVU170
 866 0002 B023     		movs	r3, #176
 867 0004 9B00     		lsls	r3, r3, #2
 868 0006 C058     		ldr	r0, [r0, r3]
 869              	.LVL74:
 354:USB_DEVICE/Target/usbd_conf.c **** 
 870              		.loc 1 354 16 view .LVU171
 871 0008 FFF7FEFF 		bl	HAL_PCD_DeInit
 872              	.LVL75:
 356:USB_DEVICE/Target/usbd_conf.c **** 
ARM GAS  /tmp/ccUhKUw1.s 			page 30


 873              		.loc 1 356 3 is_stmt 1 view .LVU172
 356:USB_DEVICE/Target/usbd_conf.c **** 
 874              		.loc 1 356 17 is_stmt 0 view .LVU173
 875 000c FFF7FEFF 		bl	USBD_Get_USB_Status
 876              	.LVL76:
 358:USB_DEVICE/Target/usbd_conf.c **** }
 877              		.loc 1 358 3 is_stmt 1 view .LVU174
 359:USB_DEVICE/Target/usbd_conf.c **** 
 878              		.loc 1 359 1 is_stmt 0 view .LVU175
 879              		@ sp needed
 880 0010 10BD     		pop	{r4, pc}
 881              		.cfi_endproc
 882              	.LFE57:
 884              		.section	.text.USBD_LL_Start,"ax",%progbits
 885              		.align	1
 886              		.global	USBD_LL_Start
 887              		.syntax unified
 888              		.code	16
 889              		.thumb_func
 890              		.fpu softvfp
 892              	USBD_LL_Start:
 893              	.LVL77:
 894              	.LFB58:
 367:USB_DEVICE/Target/usbd_conf.c ****   HAL_StatusTypeDef hal_status = HAL_OK;
 895              		.loc 1 367 1 is_stmt 1 view -0
 896              		.cfi_startproc
 897              		@ args = 0, pretend = 0, frame = 0
 898              		@ frame_needed = 0, uses_anonymous_args = 0
 367:USB_DEVICE/Target/usbd_conf.c ****   HAL_StatusTypeDef hal_status = HAL_OK;
 899              		.loc 1 367 1 is_stmt 0 view .LVU177
 900 0000 10B5     		push	{r4, lr}
 901              	.LCFI17:
 902              		.cfi_def_cfa_offset 8
 903              		.cfi_offset 4, -8
 904              		.cfi_offset 14, -4
 368:USB_DEVICE/Target/usbd_conf.c ****   USBD_StatusTypeDef usb_status = USBD_OK;
 905              		.loc 1 368 3 is_stmt 1 view .LVU178
 906              	.LVL78:
 369:USB_DEVICE/Target/usbd_conf.c **** 
 907              		.loc 1 369 3 view .LVU179
 371:USB_DEVICE/Target/usbd_conf.c **** 
 908              		.loc 1 371 3 view .LVU180
 371:USB_DEVICE/Target/usbd_conf.c **** 
 909              		.loc 1 371 34 is_stmt 0 view .LVU181
 910 0002 B023     		movs	r3, #176
 911 0004 9B00     		lsls	r3, r3, #2
 912 0006 C058     		ldr	r0, [r0, r3]
 913              	.LVL79:
 371:USB_DEVICE/Target/usbd_conf.c **** 
 914              		.loc 1 371 16 view .LVU182
 915 0008 FFF7FEFF 		bl	HAL_PCD_Start
 916              	.LVL80:
 373:USB_DEVICE/Target/usbd_conf.c **** 
 917              		.loc 1 373 3 is_stmt 1 view .LVU183
 373:USB_DEVICE/Target/usbd_conf.c **** 
 918              		.loc 1 373 17 is_stmt 0 view .LVU184
 919 000c FFF7FEFF 		bl	USBD_Get_USB_Status
ARM GAS  /tmp/ccUhKUw1.s 			page 31


 920              	.LVL81:
 375:USB_DEVICE/Target/usbd_conf.c **** }
 921              		.loc 1 375 3 is_stmt 1 view .LVU185
 376:USB_DEVICE/Target/usbd_conf.c **** 
 922              		.loc 1 376 1 is_stmt 0 view .LVU186
 923              		@ sp needed
 924 0010 10BD     		pop	{r4, pc}
 925              		.cfi_endproc
 926              	.LFE58:
 928              		.section	.text.USBD_LL_Stop,"ax",%progbits
 929              		.align	1
 930              		.global	USBD_LL_Stop
 931              		.syntax unified
 932              		.code	16
 933              		.thumb_func
 934              		.fpu softvfp
 936              	USBD_LL_Stop:
 937              	.LVL82:
 938              	.LFB59:
 384:USB_DEVICE/Target/usbd_conf.c ****   HAL_StatusTypeDef hal_status = HAL_OK;
 939              		.loc 1 384 1 is_stmt 1 view -0
 940              		.cfi_startproc
 941              		@ args = 0, pretend = 0, frame = 0
 942              		@ frame_needed = 0, uses_anonymous_args = 0
 384:USB_DEVICE/Target/usbd_conf.c ****   HAL_StatusTypeDef hal_status = HAL_OK;
 943              		.loc 1 384 1 is_stmt 0 view .LVU188
 944 0000 10B5     		push	{r4, lr}
 945              	.LCFI18:
 946              		.cfi_def_cfa_offset 8
 947              		.cfi_offset 4, -8
 948              		.cfi_offset 14, -4
 385:USB_DEVICE/Target/usbd_conf.c ****   USBD_StatusTypeDef usb_status = USBD_OK;
 949              		.loc 1 385 3 is_stmt 1 view .LVU189
 950              	.LVL83:
 386:USB_DEVICE/Target/usbd_conf.c **** 
 951              		.loc 1 386 3 view .LVU190
 388:USB_DEVICE/Target/usbd_conf.c **** 
 952              		.loc 1 388 3 view .LVU191
 388:USB_DEVICE/Target/usbd_conf.c **** 
 953              		.loc 1 388 33 is_stmt 0 view .LVU192
 954 0002 B023     		movs	r3, #176
 955 0004 9B00     		lsls	r3, r3, #2
 956 0006 C058     		ldr	r0, [r0, r3]
 957              	.LVL84:
 388:USB_DEVICE/Target/usbd_conf.c **** 
 958              		.loc 1 388 16 view .LVU193
 959 0008 FFF7FEFF 		bl	HAL_PCD_Stop
 960              	.LVL85:
 390:USB_DEVICE/Target/usbd_conf.c **** 
 961              		.loc 1 390 3 is_stmt 1 view .LVU194
 390:USB_DEVICE/Target/usbd_conf.c **** 
 962              		.loc 1 390 17 is_stmt 0 view .LVU195
 963 000c FFF7FEFF 		bl	USBD_Get_USB_Status
 964              	.LVL86:
 392:USB_DEVICE/Target/usbd_conf.c **** }
 965              		.loc 1 392 3 is_stmt 1 view .LVU196
 393:USB_DEVICE/Target/usbd_conf.c **** 
ARM GAS  /tmp/ccUhKUw1.s 			page 32


 966              		.loc 1 393 1 is_stmt 0 view .LVU197
 967              		@ sp needed
 968 0010 10BD     		pop	{r4, pc}
 969              		.cfi_endproc
 970              	.LFE59:
 972              		.section	.text.USBD_LL_OpenEP,"ax",%progbits
 973              		.align	1
 974              		.global	USBD_LL_OpenEP
 975              		.syntax unified
 976              		.code	16
 977              		.thumb_func
 978              		.fpu softvfp
 980              	USBD_LL_OpenEP:
 981              	.LVL87:
 982              	.LFB60:
 404:USB_DEVICE/Target/usbd_conf.c ****   HAL_StatusTypeDef hal_status = HAL_OK;
 983              		.loc 1 404 1 is_stmt 1 view -0
 984              		.cfi_startproc
 985              		@ args = 0, pretend = 0, frame = 0
 986              		@ frame_needed = 0, uses_anonymous_args = 0
 404:USB_DEVICE/Target/usbd_conf.c ****   HAL_StatusTypeDef hal_status = HAL_OK;
 987              		.loc 1 404 1 is_stmt 0 view .LVU199
 988 0000 10B5     		push	{r4, lr}
 989              	.LCFI19:
 990              		.cfi_def_cfa_offset 8
 991              		.cfi_offset 4, -8
 992              		.cfi_offset 14, -4
 993 0002 1400     		movs	r4, r2
 994 0004 1A00     		movs	r2, r3
 995              	.LVL88:
 405:USB_DEVICE/Target/usbd_conf.c ****   USBD_StatusTypeDef usb_status = USBD_OK;
 996              		.loc 1 405 3 is_stmt 1 view .LVU200
 406:USB_DEVICE/Target/usbd_conf.c **** 
 997              		.loc 1 406 3 view .LVU201
 408:USB_DEVICE/Target/usbd_conf.c **** 
 998              		.loc 1 408 3 view .LVU202
 408:USB_DEVICE/Target/usbd_conf.c **** 
 999              		.loc 1 408 36 is_stmt 0 view .LVU203
 1000 0006 B023     		movs	r3, #176
 1001              	.LVL89:
 408:USB_DEVICE/Target/usbd_conf.c **** 
 1002              		.loc 1 408 36 view .LVU204
 1003 0008 9B00     		lsls	r3, r3, #2
 1004 000a C058     		ldr	r0, [r0, r3]
 1005              	.LVL90:
 408:USB_DEVICE/Target/usbd_conf.c **** 
 1006              		.loc 1 408 16 view .LVU205
 1007 000c 2300     		movs	r3, r4
 1008 000e FFF7FEFF 		bl	HAL_PCD_EP_Open
 1009              	.LVL91:
 410:USB_DEVICE/Target/usbd_conf.c **** 
 1010              		.loc 1 410 3 is_stmt 1 view .LVU206
 410:USB_DEVICE/Target/usbd_conf.c **** 
 1011              		.loc 1 410 17 is_stmt 0 view .LVU207
 1012 0012 FFF7FEFF 		bl	USBD_Get_USB_Status
 1013              	.LVL92:
 412:USB_DEVICE/Target/usbd_conf.c **** }
ARM GAS  /tmp/ccUhKUw1.s 			page 33


 1014              		.loc 1 412 3 is_stmt 1 view .LVU208
 413:USB_DEVICE/Target/usbd_conf.c **** 
 1015              		.loc 1 413 1 is_stmt 0 view .LVU209
 1016              		@ sp needed
 1017 0016 10BD     		pop	{r4, pc}
 1018              		.cfi_endproc
 1019              	.LFE60:
 1021              		.section	.text.USBD_LL_CloseEP,"ax",%progbits
 1022              		.align	1
 1023              		.global	USBD_LL_CloseEP
 1024              		.syntax unified
 1025              		.code	16
 1026              		.thumb_func
 1027              		.fpu softvfp
 1029              	USBD_LL_CloseEP:
 1030              	.LVL93:
 1031              	.LFB61:
 422:USB_DEVICE/Target/usbd_conf.c ****   HAL_StatusTypeDef hal_status = HAL_OK;
 1032              		.loc 1 422 1 is_stmt 1 view -0
 1033              		.cfi_startproc
 1034              		@ args = 0, pretend = 0, frame = 0
 1035              		@ frame_needed = 0, uses_anonymous_args = 0
 422:USB_DEVICE/Target/usbd_conf.c ****   HAL_StatusTypeDef hal_status = HAL_OK;
 1036              		.loc 1 422 1 is_stmt 0 view .LVU211
 1037 0000 10B5     		push	{r4, lr}
 1038              	.LCFI20:
 1039              		.cfi_def_cfa_offset 8
 1040              		.cfi_offset 4, -8
 1041              		.cfi_offset 14, -4
 423:USB_DEVICE/Target/usbd_conf.c ****   USBD_StatusTypeDef usb_status = USBD_OK;
 1042              		.loc 1 423 3 is_stmt 1 view .LVU212
 1043              	.LVL94:
 424:USB_DEVICE/Target/usbd_conf.c **** 
 1044              		.loc 1 424 3 view .LVU213
 426:USB_DEVICE/Target/usbd_conf.c **** 
 1045              		.loc 1 426 3 view .LVU214
 426:USB_DEVICE/Target/usbd_conf.c **** 
 1046              		.loc 1 426 37 is_stmt 0 view .LVU215
 1047 0002 B023     		movs	r3, #176
 1048 0004 9B00     		lsls	r3, r3, #2
 1049 0006 C058     		ldr	r0, [r0, r3]
 1050              	.LVL95:
 426:USB_DEVICE/Target/usbd_conf.c **** 
 1051              		.loc 1 426 16 view .LVU216
 1052 0008 FFF7FEFF 		bl	HAL_PCD_EP_Close
 1053              	.LVL96:
 428:USB_DEVICE/Target/usbd_conf.c **** 
 1054              		.loc 1 428 3 is_stmt 1 view .LVU217
 428:USB_DEVICE/Target/usbd_conf.c **** 
 1055              		.loc 1 428 17 is_stmt 0 view .LVU218
 1056 000c FFF7FEFF 		bl	USBD_Get_USB_Status
 1057              	.LVL97:
 430:USB_DEVICE/Target/usbd_conf.c **** }
 1058              		.loc 1 430 3 is_stmt 1 view .LVU219
 431:USB_DEVICE/Target/usbd_conf.c **** 
 1059              		.loc 1 431 1 is_stmt 0 view .LVU220
 1060              		@ sp needed
ARM GAS  /tmp/ccUhKUw1.s 			page 34


 1061 0010 10BD     		pop	{r4, pc}
 1062              		.cfi_endproc
 1063              	.LFE61:
 1065              		.section	.text.USBD_LL_FlushEP,"ax",%progbits
 1066              		.align	1
 1067              		.global	USBD_LL_FlushEP
 1068              		.syntax unified
 1069              		.code	16
 1070              		.thumb_func
 1071              		.fpu softvfp
 1073              	USBD_LL_FlushEP:
 1074              	.LVL98:
 1075              	.LFB62:
 440:USB_DEVICE/Target/usbd_conf.c ****   HAL_StatusTypeDef hal_status = HAL_OK;
 1076              		.loc 1 440 1 is_stmt 1 view -0
 1077              		.cfi_startproc
 1078              		@ args = 0, pretend = 0, frame = 0
 1079              		@ frame_needed = 0, uses_anonymous_args = 0
 440:USB_DEVICE/Target/usbd_conf.c ****   HAL_StatusTypeDef hal_status = HAL_OK;
 1080              		.loc 1 440 1 is_stmt 0 view .LVU222
 1081 0000 10B5     		push	{r4, lr}
 1082              	.LCFI21:
 1083              		.cfi_def_cfa_offset 8
 1084              		.cfi_offset 4, -8
 1085              		.cfi_offset 14, -4
 441:USB_DEVICE/Target/usbd_conf.c ****   USBD_StatusTypeDef usb_status = USBD_OK;
 1086              		.loc 1 441 3 is_stmt 1 view .LVU223
 1087              	.LVL99:
 442:USB_DEVICE/Target/usbd_conf.c **** 
 1088              		.loc 1 442 3 view .LVU224
 444:USB_DEVICE/Target/usbd_conf.c **** 
 1089              		.loc 1 444 3 view .LVU225
 444:USB_DEVICE/Target/usbd_conf.c **** 
 1090              		.loc 1 444 37 is_stmt 0 view .LVU226
 1091 0002 B023     		movs	r3, #176
 1092 0004 9B00     		lsls	r3, r3, #2
 1093 0006 C058     		ldr	r0, [r0, r3]
 1094              	.LVL100:
 444:USB_DEVICE/Target/usbd_conf.c **** 
 1095              		.loc 1 444 16 view .LVU227
 1096 0008 FFF7FEFF 		bl	HAL_PCD_EP_Flush
 1097              	.LVL101:
 446:USB_DEVICE/Target/usbd_conf.c **** 
 1098              		.loc 1 446 3 is_stmt 1 view .LVU228
 446:USB_DEVICE/Target/usbd_conf.c **** 
 1099              		.loc 1 446 17 is_stmt 0 view .LVU229
 1100 000c FFF7FEFF 		bl	USBD_Get_USB_Status
 1101              	.LVL102:
 448:USB_DEVICE/Target/usbd_conf.c **** }
 1102              		.loc 1 448 3 is_stmt 1 view .LVU230
 449:USB_DEVICE/Target/usbd_conf.c **** 
 1103              		.loc 1 449 1 is_stmt 0 view .LVU231
 1104              		@ sp needed
 1105 0010 10BD     		pop	{r4, pc}
 1106              		.cfi_endproc
 1107              	.LFE62:
 1109              		.section	.text.USBD_LL_StallEP,"ax",%progbits
ARM GAS  /tmp/ccUhKUw1.s 			page 35


 1110              		.align	1
 1111              		.global	USBD_LL_StallEP
 1112              		.syntax unified
 1113              		.code	16
 1114              		.thumb_func
 1115              		.fpu softvfp
 1117              	USBD_LL_StallEP:
 1118              	.LVL103:
 1119              	.LFB63:
 458:USB_DEVICE/Target/usbd_conf.c ****   HAL_StatusTypeDef hal_status = HAL_OK;
 1120              		.loc 1 458 1 is_stmt 1 view -0
 1121              		.cfi_startproc
 1122              		@ args = 0, pretend = 0, frame = 0
 1123              		@ frame_needed = 0, uses_anonymous_args = 0
 458:USB_DEVICE/Target/usbd_conf.c ****   HAL_StatusTypeDef hal_status = HAL_OK;
 1124              		.loc 1 458 1 is_stmt 0 view .LVU233
 1125 0000 10B5     		push	{r4, lr}
 1126              	.LCFI22:
 1127              		.cfi_def_cfa_offset 8
 1128              		.cfi_offset 4, -8
 1129              		.cfi_offset 14, -4
 459:USB_DEVICE/Target/usbd_conf.c ****   USBD_StatusTypeDef usb_status = USBD_OK;
 1130              		.loc 1 459 3 is_stmt 1 view .LVU234
 1131              	.LVL104:
 460:USB_DEVICE/Target/usbd_conf.c **** 
 1132              		.loc 1 460 3 view .LVU235
 462:USB_DEVICE/Target/usbd_conf.c **** 
 1133              		.loc 1 462 3 view .LVU236
 462:USB_DEVICE/Target/usbd_conf.c **** 
 1134              		.loc 1 462 40 is_stmt 0 view .LVU237
 1135 0002 B023     		movs	r3, #176
 1136 0004 9B00     		lsls	r3, r3, #2
 1137 0006 C058     		ldr	r0, [r0, r3]
 1138              	.LVL105:
 462:USB_DEVICE/Target/usbd_conf.c **** 
 1139              		.loc 1 462 16 view .LVU238
 1140 0008 FFF7FEFF 		bl	HAL_PCD_EP_SetStall
 1141              	.LVL106:
 464:USB_DEVICE/Target/usbd_conf.c **** 
 1142              		.loc 1 464 3 is_stmt 1 view .LVU239
 464:USB_DEVICE/Target/usbd_conf.c **** 
 1143              		.loc 1 464 17 is_stmt 0 view .LVU240
 1144 000c FFF7FEFF 		bl	USBD_Get_USB_Status
 1145              	.LVL107:
 466:USB_DEVICE/Target/usbd_conf.c **** }
 1146              		.loc 1 466 3 is_stmt 1 view .LVU241
 467:USB_DEVICE/Target/usbd_conf.c **** 
 1147              		.loc 1 467 1 is_stmt 0 view .LVU242
 1148              		@ sp needed
 1149 0010 10BD     		pop	{r4, pc}
 1150              		.cfi_endproc
 1151              	.LFE63:
 1153              		.section	.text.USBD_LL_ClearStallEP,"ax",%progbits
 1154              		.align	1
 1155              		.global	USBD_LL_ClearStallEP
 1156              		.syntax unified
 1157              		.code	16
ARM GAS  /tmp/ccUhKUw1.s 			page 36


 1158              		.thumb_func
 1159              		.fpu softvfp
 1161              	USBD_LL_ClearStallEP:
 1162              	.LVL108:
 1163              	.LFB64:
 476:USB_DEVICE/Target/usbd_conf.c ****   HAL_StatusTypeDef hal_status = HAL_OK;
 1164              		.loc 1 476 1 is_stmt 1 view -0
 1165              		.cfi_startproc
 1166              		@ args = 0, pretend = 0, frame = 0
 1167              		@ frame_needed = 0, uses_anonymous_args = 0
 476:USB_DEVICE/Target/usbd_conf.c ****   HAL_StatusTypeDef hal_status = HAL_OK;
 1168              		.loc 1 476 1 is_stmt 0 view .LVU244
 1169 0000 10B5     		push	{r4, lr}
 1170              	.LCFI23:
 1171              		.cfi_def_cfa_offset 8
 1172              		.cfi_offset 4, -8
 1173              		.cfi_offset 14, -4
 477:USB_DEVICE/Target/usbd_conf.c ****   USBD_StatusTypeDef usb_status = USBD_OK;
 1174              		.loc 1 477 3 is_stmt 1 view .LVU245
 1175              	.LVL109:
 478:USB_DEVICE/Target/usbd_conf.c **** 
 1176              		.loc 1 478 3 view .LVU246
 480:USB_DEVICE/Target/usbd_conf.c **** 
 1177              		.loc 1 480 3 view .LVU247
 480:USB_DEVICE/Target/usbd_conf.c **** 
 1178              		.loc 1 480 40 is_stmt 0 view .LVU248
 1179 0002 B023     		movs	r3, #176
 1180 0004 9B00     		lsls	r3, r3, #2
 1181 0006 C058     		ldr	r0, [r0, r3]
 1182              	.LVL110:
 480:USB_DEVICE/Target/usbd_conf.c **** 
 1183              		.loc 1 480 16 view .LVU249
 1184 0008 FFF7FEFF 		bl	HAL_PCD_EP_ClrStall
 1185              	.LVL111:
 482:USB_DEVICE/Target/usbd_conf.c **** 
 1186              		.loc 1 482 3 is_stmt 1 view .LVU250
 482:USB_DEVICE/Target/usbd_conf.c **** 
 1187              		.loc 1 482 17 is_stmt 0 view .LVU251
 1188 000c FFF7FEFF 		bl	USBD_Get_USB_Status
 1189              	.LVL112:
 484:USB_DEVICE/Target/usbd_conf.c **** }
 1190              		.loc 1 484 3 is_stmt 1 view .LVU252
 485:USB_DEVICE/Target/usbd_conf.c **** 
 1191              		.loc 1 485 1 is_stmt 0 view .LVU253
 1192              		@ sp needed
 1193 0010 10BD     		pop	{r4, pc}
 1194              		.cfi_endproc
 1195              	.LFE64:
 1197              		.section	.text.USBD_LL_IsStallEP,"ax",%progbits
 1198              		.align	1
 1199              		.global	USBD_LL_IsStallEP
 1200              		.syntax unified
 1201              		.code	16
 1202              		.thumb_func
 1203              		.fpu softvfp
 1205              	USBD_LL_IsStallEP:
 1206              	.LVL113:
ARM GAS  /tmp/ccUhKUw1.s 			page 37


 1207              	.LFB65:
 494:USB_DEVICE/Target/usbd_conf.c ****   PCD_HandleTypeDef *hpcd = (PCD_HandleTypeDef*) pdev->pData;
 1208              		.loc 1 494 1 is_stmt 1 view -0
 1209              		.cfi_startproc
 1210              		@ args = 0, pretend = 0, frame = 0
 1211              		@ frame_needed = 0, uses_anonymous_args = 0
 1212              		@ link register save eliminated.
 495:USB_DEVICE/Target/usbd_conf.c **** 
 1213              		.loc 1 495 3 view .LVU255
 495:USB_DEVICE/Target/usbd_conf.c **** 
 1214              		.loc 1 495 22 is_stmt 0 view .LVU256
 1215 0000 B023     		movs	r3, #176
 1216 0002 9B00     		lsls	r3, r3, #2
 1217 0004 C358     		ldr	r3, [r0, r3]
 1218              	.LVL114:
 497:USB_DEVICE/Target/usbd_conf.c ****   {
 1219              		.loc 1 497 3 is_stmt 1 view .LVU257
 497:USB_DEVICE/Target/usbd_conf.c ****   {
 1220              		.loc 1 497 23 is_stmt 0 view .LVU258
 1221 0006 4AB2     		sxtb	r2, r1
 497:USB_DEVICE/Target/usbd_conf.c ****   {
 1222              		.loc 1 497 5 view .LVU259
 1223 0008 002A     		cmp	r2, #0
 1224 000a 09DB     		blt	.L53
 503:USB_DEVICE/Target/usbd_conf.c ****   }
 1225              		.loc 1 503 5 is_stmt 1 view .LVU260
 503:USB_DEVICE/Target/usbd_conf.c ****   }
 1226              		.loc 1 503 33 is_stmt 0 view .LVU261
 1227 000c 7F22     		movs	r2, #127
 1228 000e 0A40     		ands	r2, r1
 503:USB_DEVICE/Target/usbd_conf.c ****   }
 1229              		.loc 1 503 40 view .LVU262
 1230 0010 9100     		lsls	r1, r2, #2
 1231              	.LVL115:
 503:USB_DEVICE/Target/usbd_conf.c ****   }
 1232              		.loc 1 503 40 view .LVU263
 1233 0012 8918     		adds	r1, r1, r2
 1234 0014 C900     		lsls	r1, r1, #3
 1235 0016 5B18     		adds	r3, r3, r1
 1236              	.LVL116:
 503:USB_DEVICE/Target/usbd_conf.c ****   }
 1237              		.loc 1 503 40 view .LVU264
 1238 0018 6B33     		adds	r3, r3, #107
 1239 001a FF33     		adds	r3, r3, #255
 1240 001c 1878     		ldrb	r0, [r3]
 1241              	.LVL117:
 1242              	.L52:
 505:USB_DEVICE/Target/usbd_conf.c **** 
 1243              		.loc 1 505 1 view .LVU265
 1244              		@ sp needed
 1245 001e 7047     		bx	lr
 1246              	.LVL118:
 1247              	.L53:
 499:USB_DEVICE/Target/usbd_conf.c ****   }
 1248              		.loc 1 499 5 is_stmt 1 view .LVU266
 499:USB_DEVICE/Target/usbd_conf.c ****   }
 1249              		.loc 1 499 32 is_stmt 0 view .LVU267
ARM GAS  /tmp/ccUhKUw1.s 			page 38


 1250 0020 7F22     		movs	r2, #127
 1251 0022 0A40     		ands	r2, r1
 499:USB_DEVICE/Target/usbd_conf.c ****   }
 1252              		.loc 1 499 39 view .LVU268
 1253 0024 0132     		adds	r2, r2, #1
 1254 0026 9100     		lsls	r1, r2, #2
 1255              	.LVL119:
 499:USB_DEVICE/Target/usbd_conf.c ****   }
 1256              		.loc 1 499 39 view .LVU269
 1257 0028 8918     		adds	r1, r1, r2
 1258 002a C900     		lsls	r1, r1, #3
 1259 002c 5B18     		adds	r3, r3, r1
 1260              	.LVL120:
 499:USB_DEVICE/Target/usbd_conf.c ****   }
 1261              		.loc 1 499 39 view .LVU270
 1262 002e 9878     		ldrb	r0, [r3, #2]
 1263              	.LVL121:
 499:USB_DEVICE/Target/usbd_conf.c ****   }
 1264              		.loc 1 499 39 view .LVU271
 1265 0030 F5E7     		b	.L52
 1266              		.cfi_endproc
 1267              	.LFE65:
 1269              		.section	.text.USBD_LL_SetUSBAddress,"ax",%progbits
 1270              		.align	1
 1271              		.global	USBD_LL_SetUSBAddress
 1272              		.syntax unified
 1273              		.code	16
 1274              		.thumb_func
 1275              		.fpu softvfp
 1277              	USBD_LL_SetUSBAddress:
 1278              	.LVL122:
 1279              	.LFB66:
 514:USB_DEVICE/Target/usbd_conf.c ****   HAL_StatusTypeDef hal_status = HAL_OK;
 1280              		.loc 1 514 1 is_stmt 1 view -0
 1281              		.cfi_startproc
 1282              		@ args = 0, pretend = 0, frame = 0
 1283              		@ frame_needed = 0, uses_anonymous_args = 0
 514:USB_DEVICE/Target/usbd_conf.c ****   HAL_StatusTypeDef hal_status = HAL_OK;
 1284              		.loc 1 514 1 is_stmt 0 view .LVU273
 1285 0000 10B5     		push	{r4, lr}
 1286              	.LCFI24:
 1287              		.cfi_def_cfa_offset 8
 1288              		.cfi_offset 4, -8
 1289              		.cfi_offset 14, -4
 515:USB_DEVICE/Target/usbd_conf.c ****   USBD_StatusTypeDef usb_status = USBD_OK;
 1290              		.loc 1 515 3 is_stmt 1 view .LVU274
 1291              	.LVL123:
 516:USB_DEVICE/Target/usbd_conf.c **** 
 1292              		.loc 1 516 3 view .LVU275
 518:USB_DEVICE/Target/usbd_conf.c **** 
 1293              		.loc 1 518 3 view .LVU276
 518:USB_DEVICE/Target/usbd_conf.c **** 
 1294              		.loc 1 518 39 is_stmt 0 view .LVU277
 1295 0002 B023     		movs	r3, #176
 1296 0004 9B00     		lsls	r3, r3, #2
 1297 0006 C058     		ldr	r0, [r0, r3]
 1298              	.LVL124:
ARM GAS  /tmp/ccUhKUw1.s 			page 39


 518:USB_DEVICE/Target/usbd_conf.c **** 
 1299              		.loc 1 518 16 view .LVU278
 1300 0008 FFF7FEFF 		bl	HAL_PCD_SetAddress
 1301              	.LVL125:
 520:USB_DEVICE/Target/usbd_conf.c **** 
 1302              		.loc 1 520 3 is_stmt 1 view .LVU279
 520:USB_DEVICE/Target/usbd_conf.c **** 
 1303              		.loc 1 520 17 is_stmt 0 view .LVU280
 1304 000c FFF7FEFF 		bl	USBD_Get_USB_Status
 1305              	.LVL126:
 522:USB_DEVICE/Target/usbd_conf.c **** }
 1306              		.loc 1 522 3 is_stmt 1 view .LVU281
 523:USB_DEVICE/Target/usbd_conf.c **** 
 1307              		.loc 1 523 1 is_stmt 0 view .LVU282
 1308              		@ sp needed
 1309 0010 10BD     		pop	{r4, pc}
 1310              		.cfi_endproc
 1311              	.LFE66:
 1313              		.section	.text.USBD_LL_Transmit,"ax",%progbits
 1314              		.align	1
 1315              		.global	USBD_LL_Transmit
 1316              		.syntax unified
 1317              		.code	16
 1318              		.thumb_func
 1319              		.fpu softvfp
 1321              	USBD_LL_Transmit:
 1322              	.LVL127:
 1323              	.LFB67:
 534:USB_DEVICE/Target/usbd_conf.c ****   HAL_StatusTypeDef hal_status = HAL_OK;
 1324              		.loc 1 534 1 is_stmt 1 view -0
 1325              		.cfi_startproc
 1326              		@ args = 0, pretend = 0, frame = 0
 1327              		@ frame_needed = 0, uses_anonymous_args = 0
 534:USB_DEVICE/Target/usbd_conf.c ****   HAL_StatusTypeDef hal_status = HAL_OK;
 1328              		.loc 1 534 1 is_stmt 0 view .LVU284
 1329 0000 10B5     		push	{r4, lr}
 1330              	.LCFI25:
 1331              		.cfi_def_cfa_offset 8
 1332              		.cfi_offset 4, -8
 1333              		.cfi_offset 14, -4
 535:USB_DEVICE/Target/usbd_conf.c ****   USBD_StatusTypeDef usb_status = USBD_OK;
 1334              		.loc 1 535 3 is_stmt 1 view .LVU285
 1335              	.LVL128:
 536:USB_DEVICE/Target/usbd_conf.c **** 
 1336              		.loc 1 536 3 view .LVU286
 538:USB_DEVICE/Target/usbd_conf.c **** 
 1337              		.loc 1 538 3 view .LVU287
 538:USB_DEVICE/Target/usbd_conf.c **** 
 1338              		.loc 1 538 40 is_stmt 0 view .LVU288
 1339 0002 B024     		movs	r4, #176
 1340 0004 A400     		lsls	r4, r4, #2
 1341 0006 0059     		ldr	r0, [r0, r4]
 1342              	.LVL129:
 538:USB_DEVICE/Target/usbd_conf.c **** 
 1343              		.loc 1 538 16 view .LVU289
 1344 0008 FFF7FEFF 		bl	HAL_PCD_EP_Transmit
 1345              	.LVL130:
ARM GAS  /tmp/ccUhKUw1.s 			page 40


 540:USB_DEVICE/Target/usbd_conf.c **** 
 1346              		.loc 1 540 3 is_stmt 1 view .LVU290
 540:USB_DEVICE/Target/usbd_conf.c **** 
 1347              		.loc 1 540 17 is_stmt 0 view .LVU291
 1348 000c FFF7FEFF 		bl	USBD_Get_USB_Status
 1349              	.LVL131:
 542:USB_DEVICE/Target/usbd_conf.c **** }
 1350              		.loc 1 542 3 is_stmt 1 view .LVU292
 543:USB_DEVICE/Target/usbd_conf.c **** 
 1351              		.loc 1 543 1 is_stmt 0 view .LVU293
 1352              		@ sp needed
 1353 0010 10BD     		pop	{r4, pc}
 1354              		.cfi_endproc
 1355              	.LFE67:
 1357              		.section	.text.USBD_LL_PrepareReceive,"ax",%progbits
 1358              		.align	1
 1359              		.global	USBD_LL_PrepareReceive
 1360              		.syntax unified
 1361              		.code	16
 1362              		.thumb_func
 1363              		.fpu softvfp
 1365              	USBD_LL_PrepareReceive:
 1366              	.LVL132:
 1367              	.LFB68:
 554:USB_DEVICE/Target/usbd_conf.c ****   HAL_StatusTypeDef hal_status = HAL_OK;
 1368              		.loc 1 554 1 is_stmt 1 view -0
 1369              		.cfi_startproc
 1370              		@ args = 0, pretend = 0, frame = 0
 1371              		@ frame_needed = 0, uses_anonymous_args = 0
 554:USB_DEVICE/Target/usbd_conf.c ****   HAL_StatusTypeDef hal_status = HAL_OK;
 1372              		.loc 1 554 1 is_stmt 0 view .LVU295
 1373 0000 10B5     		push	{r4, lr}
 1374              	.LCFI26:
 1375              		.cfi_def_cfa_offset 8
 1376              		.cfi_offset 4, -8
 1377              		.cfi_offset 14, -4
 555:USB_DEVICE/Target/usbd_conf.c ****   USBD_StatusTypeDef usb_status = USBD_OK;
 1378              		.loc 1 555 3 is_stmt 1 view .LVU296
 1379              	.LVL133:
 556:USB_DEVICE/Target/usbd_conf.c **** 
 1380              		.loc 1 556 3 view .LVU297
 558:USB_DEVICE/Target/usbd_conf.c **** 
 1381              		.loc 1 558 3 view .LVU298
 558:USB_DEVICE/Target/usbd_conf.c **** 
 1382              		.loc 1 558 39 is_stmt 0 view .LVU299
 1383 0002 B024     		movs	r4, #176
 1384 0004 A400     		lsls	r4, r4, #2
 1385 0006 0059     		ldr	r0, [r0, r4]
 1386              	.LVL134:
 558:USB_DEVICE/Target/usbd_conf.c **** 
 1387              		.loc 1 558 16 view .LVU300
 1388 0008 FFF7FEFF 		bl	HAL_PCD_EP_Receive
 1389              	.LVL135:
 560:USB_DEVICE/Target/usbd_conf.c **** 
 1390              		.loc 1 560 3 is_stmt 1 view .LVU301
 560:USB_DEVICE/Target/usbd_conf.c **** 
 1391              		.loc 1 560 17 is_stmt 0 view .LVU302
ARM GAS  /tmp/ccUhKUw1.s 			page 41


 1392 000c FFF7FEFF 		bl	USBD_Get_USB_Status
 1393              	.LVL136:
 562:USB_DEVICE/Target/usbd_conf.c **** }
 1394              		.loc 1 562 3 is_stmt 1 view .LVU303
 563:USB_DEVICE/Target/usbd_conf.c **** 
 1395              		.loc 1 563 1 is_stmt 0 view .LVU304
 1396              		@ sp needed
 1397 0010 10BD     		pop	{r4, pc}
 1398              		.cfi_endproc
 1399              	.LFE68:
 1401              		.section	.text.USBD_LL_GetRxDataSize,"ax",%progbits
 1402              		.align	1
 1403              		.global	USBD_LL_GetRxDataSize
 1404              		.syntax unified
 1405              		.code	16
 1406              		.thumb_func
 1407              		.fpu softvfp
 1409              	USBD_LL_GetRxDataSize:
 1410              	.LVL137:
 1411              	.LFB69:
 572:USB_DEVICE/Target/usbd_conf.c ****   return HAL_PCD_EP_GetRxCount((PCD_HandleTypeDef*) pdev->pData, ep_addr);
 1412              		.loc 1 572 1 is_stmt 1 view -0
 1413              		.cfi_startproc
 1414              		@ args = 0, pretend = 0, frame = 0
 1415              		@ frame_needed = 0, uses_anonymous_args = 0
 572:USB_DEVICE/Target/usbd_conf.c ****   return HAL_PCD_EP_GetRxCount((PCD_HandleTypeDef*) pdev->pData, ep_addr);
 1416              		.loc 1 572 1 is_stmt 0 view .LVU306
 1417 0000 10B5     		push	{r4, lr}
 1418              	.LCFI27:
 1419              		.cfi_def_cfa_offset 8
 1420              		.cfi_offset 4, -8
 1421              		.cfi_offset 14, -4
 573:USB_DEVICE/Target/usbd_conf.c **** }
 1422              		.loc 1 573 3 is_stmt 1 view .LVU307
 573:USB_DEVICE/Target/usbd_conf.c **** }
 1423              		.loc 1 573 57 is_stmt 0 view .LVU308
 1424 0002 B023     		movs	r3, #176
 1425 0004 9B00     		lsls	r3, r3, #2
 1426 0006 C058     		ldr	r0, [r0, r3]
 1427              	.LVL138:
 573:USB_DEVICE/Target/usbd_conf.c **** }
 1428              		.loc 1 573 10 view .LVU309
 1429 0008 FFF7FEFF 		bl	HAL_PCD_EP_GetRxCount
 1430              	.LVL139:
 574:USB_DEVICE/Target/usbd_conf.c **** 
 1431              		.loc 1 574 1 view .LVU310
 1432              		@ sp needed
 1433 000c 10BD     		pop	{r4, pc}
 1434              		.cfi_endproc
 1435              	.LFE69:
 1437              		.section	.text.USBD_LL_Delay,"ax",%progbits
 1438              		.align	1
 1439              		.global	USBD_LL_Delay
 1440              		.syntax unified
 1441              		.code	16
 1442              		.thumb_func
 1443              		.fpu softvfp
ARM GAS  /tmp/ccUhKUw1.s 			page 42


 1445              	USBD_LL_Delay:
 1446              	.LVL140:
 1447              	.LFB70:
 582:USB_DEVICE/Target/usbd_conf.c ****   HAL_Delay(Delay);
 1448              		.loc 1 582 1 is_stmt 1 view -0
 1449              		.cfi_startproc
 1450              		@ args = 0, pretend = 0, frame = 0
 1451              		@ frame_needed = 0, uses_anonymous_args = 0
 582:USB_DEVICE/Target/usbd_conf.c ****   HAL_Delay(Delay);
 1452              		.loc 1 582 1 is_stmt 0 view .LVU312
 1453 0000 10B5     		push	{r4, lr}
 1454              	.LCFI28:
 1455              		.cfi_def_cfa_offset 8
 1456              		.cfi_offset 4, -8
 1457              		.cfi_offset 14, -4
 583:USB_DEVICE/Target/usbd_conf.c **** }
 1458              		.loc 1 583 3 is_stmt 1 view .LVU313
 1459 0002 FFF7FEFF 		bl	HAL_Delay
 1460              	.LVL141:
 584:USB_DEVICE/Target/usbd_conf.c **** 
 1461              		.loc 1 584 1 is_stmt 0 view .LVU314
 1462              		@ sp needed
 1463 0006 10BD     		pop	{r4, pc}
 1464              		.cfi_endproc
 1465              	.LFE70:
 1467              		.section	.text.USBD_static_malloc,"ax",%progbits
 1468              		.align	1
 1469              		.global	USBD_static_malloc
 1470              		.syntax unified
 1471              		.code	16
 1472              		.thumb_func
 1473              		.fpu softvfp
 1475              	USBD_static_malloc:
 1476              	.LVL142:
 1477              	.LFB71:
 592:USB_DEVICE/Target/usbd_conf.c ****   static uint32_t mem[(sizeof(USBD_HID_HandleTypeDef)/4)+1];/* On 32-bit boundary */
 1478              		.loc 1 592 1 is_stmt 1 view -0
 1479              		.cfi_startproc
 1480              		@ args = 0, pretend = 0, frame = 0
 1481              		@ frame_needed = 0, uses_anonymous_args = 0
 1482              		@ link register save eliminated.
 593:USB_DEVICE/Target/usbd_conf.c ****   return mem;
 1483              		.loc 1 593 3 view .LVU316
 594:USB_DEVICE/Target/usbd_conf.c **** }
 1484              		.loc 1 594 3 view .LVU317
 595:USB_DEVICE/Target/usbd_conf.c **** 
 1485              		.loc 1 595 1 is_stmt 0 view .LVU318
 1486 0000 0048     		ldr	r0, .L60
 1487              	.LVL143:
 595:USB_DEVICE/Target/usbd_conf.c **** 
 1488              		.loc 1 595 1 view .LVU319
 1489              		@ sp needed
 1490 0002 7047     		bx	lr
 1491              	.L61:
 1492              		.align	2
 1493              	.L60:
 1494 0004 00000000 		.word	.LANCHOR0
ARM GAS  /tmp/ccUhKUw1.s 			page 43


 1495              		.cfi_endproc
 1496              	.LFE71:
 1498              		.section	.text.USBD_static_free,"ax",%progbits
 1499              		.align	1
 1500              		.global	USBD_static_free
 1501              		.syntax unified
 1502              		.code	16
 1503              		.thumb_func
 1504              		.fpu softvfp
 1506              	USBD_static_free:
 1507              	.LVL144:
 1508              	.LFB72:
 603:USB_DEVICE/Target/usbd_conf.c **** 
 1509              		.loc 1 603 1 is_stmt 1 view -0
 1510              		.cfi_startproc
 1511              		@ args = 0, pretend = 0, frame = 0
 1512              		@ frame_needed = 0, uses_anonymous_args = 0
 1513              		@ link register save eliminated.
 605:USB_DEVICE/Target/usbd_conf.c **** 
 1514              		.loc 1 605 1 view .LVU321
 1515              		@ sp needed
 1516 0000 7047     		bx	lr
 1517              		.cfi_endproc
 1518              	.LFE72:
 1520              		.comm	hpcd_USB_FS,756,4
 1521              		.section	.bss.mem.8316,"aw",%nobits
 1522              		.align	2
 1523              		.set	.LANCHOR0,. + 0
 1526              	mem.8316:
 1527 0000 00000000 		.space	20
 1527      00000000 
 1527      00000000 
 1527      00000000 
 1527      00000000 
 1528              		.text
 1529              	.Letext0:
 1530              		.file 2 "/usr/lib/gcc/arm-none-eabi/9.2.1/include/stdint.h"
 1531              		.file 3 "Drivers/CMSIS/Include/core_cm0.h"
 1532              		.file 4 "Drivers/CMSIS/Device/ST/STM32F0xx/Include/system_stm32f0xx.h"
 1533              		.file 5 "Drivers/CMSIS/Device/ST/STM32F0xx/Include/stm32f042x6.h"
 1534              		.file 6 "Drivers/CMSIS/Device/ST/STM32F0xx/Include/stm32f0xx.h"
 1535              		.file 7 "Drivers/STM32F0xx_HAL_Driver/Inc/stm32f0xx_hal_def.h"
 1536              		.file 8 "Drivers/STM32F0xx_HAL_Driver/Inc/stm32f0xx_ll_usb.h"
 1537              		.file 9 "Drivers/STM32F0xx_HAL_Driver/Inc/stm32f0xx_hal_pcd.h"
 1538              		.file 10 "Drivers/STM32F0xx_HAL_Driver/Inc/stm32f0xx_hal.h"
 1539              		.file 11 "/usr/lib/gcc/arm-none-eabi/9.2.1/include/stddef.h"
 1540              		.file 12 "/usr/include/newlib/sys/_types.h"
 1541              		.file 13 "/usr/include/newlib/sys/reent.h"
 1542              		.file 14 "/usr/include/newlib/sys/lock.h"
 1543              		.file 15 "/usr/include/newlib/stdlib.h"
 1544              		.file 16 "Middlewares/ST/STM32_USB_Device_Library/Core/Inc/usbd_def.h"
 1545              		.file 17 "Middlewares/ST/STM32_USB_Device_Library/Class/HID/Inc/usbd_hid.h"
 1546              		.file 18 "Drivers/STM32F0xx_HAL_Driver/Inc/stm32f0xx_hal_pcd_ex.h"
 1547              		.file 19 "Middlewares/ST/STM32_USB_Device_Library/Core/Inc/usbd_core.h"
 1548              		.file 20 "Drivers/STM32F0xx_HAL_Driver/Inc/stm32f0xx_hal_cortex.h"
ARM GAS  /tmp/ccUhKUw1.s 			page 44

